Product: MDK-ARM Lite 5.10
Component: ARM Compiler 5.04 update 1 (build 49)
Tool: armlink [5040049]

==============================================================================

Section Cross References

    startup_stm32f10x_hd.o(RESET) refers to startup_stm32f10x_hd.o(STACK) for __initial_sp
    startup_stm32f10x_hd.o(RESET) refers to startup_stm32f10x_hd.o(.text) for Reset_Handler
    startup_stm32f10x_hd.o(RESET) refers to stm32f10x_it.o(.text) for NMI_Handler
    startup_stm32f10x_hd.o(RESET) refers to os_cpu_a.o(.text) for OS_CPU_PendSVHandler
    startup_stm32f10x_hd.o(RESET) refers to delay v2.0.o(.text) for SysTick_Handler
    startup_stm32f10x_hd.o(RESET) refers to task_rtc.o(.text) for RTC_IRQHandler
    startup_stm32f10x_hd.o(RESET) refers to exti.o(.text) for EXTI0_IRQHandler
    startup_stm32f10x_hd.o(RESET) refers to adc.o(.text) for DMA1_Channel1_IRQHandler
    startup_stm32f10x_hd.o(RESET) refers to usart1.o(.text) for DMA1_Channel5_IRQHandler
    startup_stm32f10x_hd.o(RESET) refers to indkey.o(.text) for EXTI15_10_IRQHandler
    startup_stm32f10x_hd.o(RESET) refers to timer.o(.text) for TIM5_IRQHandler
    startup_stm32f10x_hd.o(.text) refers to system_stm32f10x.o(.text) for SystemInit
    startup_stm32f10x_hd.o(.text) refers to entry.o(.ARM.Collect$$$$00000000) for __main
    main.o(.text) refers to system_stm32f10x.o(.text) for SystemInit
    main.o(.text) refers to os_core.o(.text) for OSInit
    main.o(.text) refers to os_mutex.o(.text) for OSMutexCreate
    main.o(.text) refers to os_task.o(.text) for OSTaskCreate
    main.o(.text) refers to os_cpu_a.o(.text) for OS_CPU_SR_Save
    main.o(.text) refers to delay v2.0.o(.text) for DelayInit
    main.o(.text) refers to pincfg.o(.text) for PinCfg
    main.o(.text) refers to tft_drive.o(.text) for FSMC_LCD_Init
    main.o(.text) refers to guicore.o(.text) for GUI_Init
    main.o(.text) refers to tsc2046.o(.text) for TSC2046_Config
    main.o(.text) refers to usart1.o(.text) for USART1_Config
    main.o(.text) refers to dac v2.0.o(.text) for DAC_Config
    main.o(.text) refers to adc.o(.text) for ADC1_Init
    main.o(.text) refers to exti.o(.text) for EXTI_Config
    main.o(.text) refers to indkey.o(.text) for Key_EXTI_Config
    main.o(.text) refers to timer.o(.text) for TIM5_Config
    main.o(.text) refers to task_rtc.o(.text) for RTC_Init
    main.o(.text) refers to oscilloscope.o(.text) for ManualGainScan
    main.o(.text) refers to iwdg.o(.text) for IWDG_Init
    main.o(.text) refers to main.o(.data) for .data
    main.o(.text) refers to main.o(.bss) for .bss
    main.o(.text) refers to app.o(.text) for Task_Start
    usart1.o(.text) refers to stm32f10x_rcc.o(.text) for RCC_APB2PeriphClockCmd
    usart1.o(.text) refers to stm32f10x_gpio.o(.text) for GPIO_Init
    usart1.o(.text) refers to stm32f10x_usart.o(.text) for USART_Init
    usart1.o(.text) refers to stm32f10x_dma.o(.text) for DMA_DeInit
    usart1.o(.text) refers to misc.o(.text) for NVIC_PriorityGroupConfig
    usart1.o(.text) refers to task_main.o(.text) for ReceiveDataFromPC
    usart1.o(.text) refers to os_core.o(.text) for OSIntExit
    usart1.o(.text) refers to usart1.o(.bss) for .bss
    usart1.o(.text) refers to os_core.o(.data) for OSIntNesting
    delay v2.0.o(.text) refers to misc.o(.text) for SysTick_CLKSourceConfig
    delay v2.0.o(.text) refers to os_core.o(.text) for OSIntEnter
    delay v2.0.o(.text) refers to os_time.o(.text) for OSTimeDly
    delay v2.0.o(.text) refers to system_stm32f10x.o(.data) for SystemCoreClock
    delay v2.0.o(.text) refers to delay v2.0.o(.data) for .data
    delay v2.0.o(.text) refers to os_core.o(.data) for OSRunning
    pincfg.o(.text) refers to stm32f10x_rcc.o(.text) for RCC_APB2PeriphClockCmd
    pincfg.o(.text) refers to stm32f10x_gpio.o(.text) for GPIO_Init
    pincfg.o(.text) refers to os_time.o(.text) for OSTimeDlyHMSM
    adc.o(.text) refers to stm32f10x_rcc.o(.text) for RCC_AHBPeriphClockCmd
    adc.o(.text) refers to stm32f10x_gpio.o(.text) for GPIO_Init
    adc.o(.text) refers to stm32f10x_dma.o(.text) for DMA_DeInit
    adc.o(.text) refers to misc.o(.text) for NVIC_PriorityGroupConfig
    adc.o(.text) refers to stm32f10x_tim.o(.text) for TIM_TimeBaseStructInit
    adc.o(.text) refers to stm32f10x_adc.o(.text) for ADC_Init
    adc.o(.text) refers to os_core.o(.text) for OSIntExit
    adc.o(.text) refers to adc.o(.bss) for .bss
    adc.o(.text) refers to os_core.o(.data) for OSIntNesting
    adc.o(.text) refers to task_main.o(.bss) for WaveCtrl
    dac v2.0.o(.text) refers to stm32f10x_rcc.o(.text) for RCC_APB1PeriphClockCmd
    dac v2.0.o(.text) refers to stm32f10x_tim.o(.text) for TIM_TimeBaseInit
    dac v2.0.o(.text) refers to stm32f10x_gpio.o(.text) for GPIO_Init
    dac v2.0.o(.text) refers to stm32f10x_dac.o(.text) for DAC_Init
    dac v2.0.o(.text) refers to stm32f10x_dma.o(.text) for DMA_DeInit
    dac v2.0.o(.text) refers to ffltui.o(.text) for __aeabi_ui2f
    dac v2.0.o(.text) refers to fdiv.o(.text) for __aeabi_fdiv
    dac v2.0.o(.text) refers to f2d.o(.text) for __aeabi_f2d
    dac v2.0.o(.text) refers to dmul.o(.text) for __aeabi_dmul
    dac v2.0.o(.text) refers to d2f.o(.text) for __aeabi_d2f
    dac v2.0.o(.text) refers to ffixui.o(.text) for __aeabi_f2uiz
    dac v2.0.o(.text) refers to dac v2.0.o(.constdata) for .constdata
    exti.o(.text) refers to misc.o(.text) for NVIC_Init
    exti.o(.text) refers to stm32f10x_rcc.o(.text) for RCC_APB2PeriphClockCmd
    exti.o(.text) refers to stm32f10x_gpio.o(.text) for GPIO_Init
    exti.o(.text) refers to stm32f10x_exti.o(.text) for EXTI_Init
    exti.o(.text) refers to stm32f10x_tim.o(.text) for TIM_Cmd
    exti.o(.text) refers to os_core.o(.text) for OSIntExit
    exti.o(.text) refers to exti.o(.data) for .data
    exti.o(.text) refers to os_core.o(.data) for OSIntNesting
    exti.o(.text) refers to task_main.o(.bss) for WaveInfo
    indkey.o(.text) refers to stm32f10x_gpio.o(.text) for GPIO_ReadInputDataBit
    indkey.o(.text) refers to delay v2.0.o(.text) for delayms
    indkey.o(.text) refers to misc.o(.text) for NVIC_Init
    indkey.o(.text) refers to stm32f10x_exti.o(.text) for EXTI_Init
    indkey.o(.text) refers to oscilloscope.o(.text) for ManualGainScan
    indkey.o(.text) refers to os_core.o(.text) for OSIntExit
    indkey.o(.text) refers to os_core.o(.data) for OSIntNesting
    indkey.o(.text) refers to task_main.o(.bss) for WaveCtrl
    iwdg.o(.text) refers to stm32f10x_iwdg.o(.text) for IWDG_WriteAccessCmd
    oscilloscope.o(.text) refers to os_time.o(.text) for OSTimeDlyHMSM
    oscilloscope.o(.text) refers to task_gui.o(.text) for ShowRealTimeWave
    oscilloscope.o(.text) refers to tft_api.o(.text) for LCD_Write_String
    oscilloscope.o(.text) refers to stm32f10x_tim.o(.text) for TIM_GetCounter
    oscilloscope.o(.text) refers to stm32f10x_dac.o(.text) for DAC_DMACmd
    oscilloscope.o(.text) refers to stm32f10x_dma.o(.text) for DMA_Cmd
    oscilloscope.o(.text) refers to dac v2.0.o(.text) for DACTriggerByTIM2
    oscilloscope.o(.text) refers to f2d.o(.text) for __aeabi_f2d
    oscilloscope.o(.text) refers to ddiv.o(.text) for __aeabi_ddiv
    oscilloscope.o(.text) refers to dfltui.o(.text) for __aeabi_ui2d
    oscilloscope.o(.text) refers to dmul.o(.text) for __aeabi_dmul
    oscilloscope.o(.text) refers to dfixui.o(.text) for __aeabi_d2uiz
    oscilloscope.o(.text) refers to task_main.o(.bss) for WaveCtrl
    oscilloscope.o(.text) refers to oscilloscope.o(.data) for .data
    oscilloscope.o(.text) refers to exti.o(.data) for InterruptTimes
    oscilloscope.o(.text) refers to dac v2.0.o(.bss) for AnyWaveTab
    oscilloscope.o(.text) refers to dac v2.0.o(.constdata) for TriangleWaveTab
    oscilloscope.o(.text) refers to dscalb.o(.text) for __ARM_scalbn
    oscilloscope.o(.text) refers to dac v2.0.o(.constdata) for SineWaveTab
    oscilloscope.o(.text) refers to dac v2.0.o(.constdata) for SawtoothWaveTab
    timer.o(.text) refers to stm32f10x_rcc.o(.text) for RCC_APB1PeriphClockCmd
    timer.o(.text) refers to stm32f10x_tim.o(.text) for TIM_TimeBaseInit
    timer.o(.text) refers to misc.o(.text) for NVIC_Init
    timer.o(.text) refers to os_core.o(.text) for OSIntExit
    timer.o(.text) refers to os_core.o(.data) for OSIntNesting
    timer.o(.text) refers to oscilloscope.o(.data) for IntFullTime
    tft_api.o(.text) refers to stm32f10x_gpio.o(.text) for GPIO_ResetBits
    tft_api.o(.text) refers to delay v2.0.o(.text) for Software_Delay
    tft_api.o(.text) refers to tft_drive.o(.text) for LCD_WR_REG
    tft_api.o(.text) refers to dfltui.o(.text) for __aeabi_ui2d
    tft_api.o(.text) refers to ffltui.o(.text) for __aeabi_ui2f
    tft_api.o(.text) refers to fdiv.o(.text) for __aeabi_fdiv
    tft_api.o(.text) refers to fmul.o(.text) for __aeabi_fmul
    tft_api.o(.text) refers to fadd.o(.text) for __aeabi_fadd
    tft_api.o(.text) refers to f2d.o(.text) for __aeabi_f2d
    tft_api.o(.text) refers to sin.o(i.sin) for sin
    tft_api.o(.text) refers to dmul.o(.text) for __aeabi_dmul
    tft_api.o(.text) refers to dadd.o(.text) for __aeabi_dadd
    tft_api.o(.text) refers to d2f.o(.text) for __aeabi_d2f
    tft_api.o(.text) refers to ffixui.o(.text) for __aeabi_f2uiz
    tft_api.o(.text) refers to tft_api.o(.constdata) for .constdata
    tft_drive.o(.text) refers to stm32f10x_gpio.o(.text) for GPIO_ResetBits
    tft_drive.o(.text) refers to delay v2.0.o(.text) for Software_Delay
    tft_drive.o(.text) refers to tft_api.o(.text) for LCD_Clear_All
    tft_drive.o(.text) refers to stm32f10x_rcc.o(.text) for RCC_APB2PeriphClockCmd
    tft_drive.o(.text) refers to stm32f10x_fsmc.o(.text) for FSMC_NORSRAMInit
    tft_drive.o(.text) refers to tft_drive.o(.data) for .data
    tsc2046.o(.text) refers to stm32f10x_rcc.o(.text) for RCC_APB2PeriphClockCmd
    tsc2046.o(.text) refers to stm32f10x_gpio.o(.text) for GPIO_Init
    tsc2046.o(.text) refers to stm32f10x_spi.o(.text) for SPI_Init
    tsc2046.o(.text) refers to delay v2.0.o(.text) for Software_Delay
    tsc2046.o(.text) refers to ffltui.o(.text) for __aeabi_ui2f
    tsc2046.o(.text) refers to fadd.o(.text) for __aeabi_fadd
    tsc2046.o(.text) refers to fdiv.o(.text) for __aeabi_fdiv
    tsc2046.o(.text) refers to ffixui.o(.text) for __aeabi_f2uiz
    tsc2046.o(.text) refers to dflti.o(.text) for __aeabi_i2d
    tsc2046.o(.text) refers to ddiv.o(.text) for __aeabi_ddiv
    tsc2046.o(.text) refers to dfixui.o(.text) for __aeabi_d2uiz
    stm32f10x_gpio.o(.text) refers to stm32f10x_rcc.o(.text) for RCC_APB2PeriphResetCmd
    stm32f10x_rcc.o(.text) refers to stm32f10x_rcc.o(.data) for .data
    stm32f10x_usart.o(.text) refers to stm32f10x_rcc.o(.text) for RCC_APB1PeriphResetCmd
    stm32f10x_adc.o(.text) refers to stm32f10x_rcc.o(.text) for RCC_APB2PeriphResetCmd
    stm32f10x_bkp.o(.text) refers to stm32f10x_rcc.o(.text) for RCC_BackupResetCmd
    stm32f10x_dac.o(.text) refers to stm32f10x_rcc.o(.text) for RCC_APB1PeriphResetCmd
    stm32f10x_i2c.o(.text) refers to stm32f10x_rcc.o(.text) for RCC_APB1PeriphResetCmd
    stm32f10x_pwr.o(.text) refers to stm32f10x_rcc.o(.text) for RCC_APB1PeriphResetCmd
    stm32f10x_tim.o(.text) refers to stm32f10x_rcc.o(.text) for RCC_APB2PeriphResetCmd
    stm32f10x_spi.o(.text) refers to stm32f10x_rcc.o(.text) for RCC_APB1PeriphResetCmd
    system_stm32f10x.o(.text) refers to system_stm32f10x.o(.data) for .data
    app.o(.text) refers to task_main.o(.text) for GetWaveADCValue
    app.o(.text) refers to iwdg.o(.text) for IWDG_Feed
    app.o(.text) refers to os_time.o(.text) for OSTimeDlyHMSM
    app.o(.text) refers to task_gui.o(.text) for DrawControlPanel
    app.o(.text) refers to adc.o(.text) for GetTempSensor
    app.o(.text) refers to pincfg.o(.text) for PinCfg_Beep
    app.o(.text) refers to tsc2046.o(.text) for TP_Read
    app.o(.text) refers to main.o(.text) for BSP_Init
    app.o(.text) refers to os_core.o(.text) for OSStatInit
    app.o(.text) refers to os_task.o(.text) for OSTaskCreateExt
    app.o(.text) refers to task_main.o(.bss) for WaveCtrl
    app.o(.text) refers to task_gui.o(.data) for Tpy
    app.o(.text) refers to task_gui.o(.data) for Tpx
    app.o(.text) refers to task_gui.o(.data) for ZBY
    app.o(.text) refers to app.o(.bss) for .bss
    task_gui.o(.text) refers to gui_setcolor.o(.text) for GUI_SetBkColor
    task_gui.o(.text) refers to gui_setfont.o(.text) for GUI_SetFont
    task_gui.o(.text) refers to gui_settextmode.o(.text) for GUI_SetTextMode
    task_gui.o(.text) refers to guicore.o(.text) for GUI_ClearRect
    task_gui.o(.text) refers to gui2dlib.o(.text) for GUI_DrawRect
    task_gui.o(.text) refers to gui_drawhline.o(.text) for GUI_DrawHLine
    task_gui.o(.text) refers to gui_drawvline.o(.text) for GUI_DrawVLine
    task_gui.o(.text) refers to guival.o(.text) for GUI_DispDecAt
    task_gui.o(.text) refers to gui_drawgraph.o(.text) for GUI_DrawGraph
    task_gui.o(.text) refers to gui_dispstringat.o(.text) for GUI_DispStringAt
    task_gui.o(.text) refers to guivalf.o(.text) for GUI_DispFloat
    task_gui.o(.text) refers to gui_dispstring.o(.text) for GUI_DispString
    task_gui.o(.text) refers to os_mutex.o(.text) for OSMutexPend
    task_gui.o(.text) refers to f2d.o(.text) for __aeabi_f2d
    task_gui.o(.text) refers to printfa.o(i.__0sprintf) for __2sprintf
    task_gui.o(.text) refers to tft_api.o(.text) for LCD_Write_String
    task_gui.o(.text) refers to f6x8.o(.constdata) for GUI_Font6x8
    task_gui.o(.text) refers to task_gui.o(.data) for .data
    task_gui.o(.text) refers to task_gui.o(.bss) for .bss
    task_gui.o(.text) refers to task_main.o(.bss) for WaveInfo
    task_gui.o(.text) refers to main.o(.data) for LCD_Buffer_MUTEX
    task_gui.o(.text) refers to tft_api.o(.bss) for LCD_Buffer
    task_gui.o(.text) refers to adc.o(.text) for GetTempSensor
    task_gui.o(.text) refers to ffltui.o(.text) for __aeabi_ui2f
    task_gui.o(.text) refers to cfrcmple.o(.text) for __aeabi_cfrcmple
    task_gui.o(.text) refers to cfcmple.o(.text) for __aeabi_cfcmple
    task_gui.o(.text) refers to fmul.o(.text) for __aeabi_fmul
    task_gui.o(.text) refers to fscalb.o(.text) for __ARM_scalbnf
    task_gui.o(.text) refers to fadd.o(.text) for __aeabi_frsub
    task_gui.o(.text) refers to ffixui.o(.text) for __aeabi_f2uiz
    task_gui.o(.text) refers to dadd.o(.text) for __aeabi_dsub
    task_gui.o(.text) refers to d2f.o(.text) for __aeabi_d2f
    task_gui.o(.text) refers to fdiv.o(.text) for __aeabi_fdiv
    task_gui.o(.text) refers to dmul.o(.text) for __aeabi_dmul
    task_gui.o(.text) refers to os_cpu_a.o(.text) for OS_CPU_SR_Save
    task_gui.o(.text) refers to guidev_banding.o(.text) for GUI_MEMDEV_Draw
    task_gui.o(.text) refers to task_gui.o(.constdata) for .constdata
    task_gui.o(.text) refers to adc.o(.bss) for ADCConvertedValue
    task_gui.o(.text) refers to gui_dispstringhcenter.o(.text) for GUI_DispStringHCenterAt
    task_gui.o(.text) refers to f8x16.o(.constdata) for GUI_Font8x16
    task_gui.o(.text) refers to oscilloscope.o(.text) for TimeBaseControl
    task_main.o(.text) refers to os_task.o(.text) for OSTaskStkChk
    task_main.o(.text) refers to tft_api.o(.text) for LCD_Write_String
    task_main.o(.text) refers to os_mutex.o(.text) for OSMutexPend
    task_main.o(.text) refers to printfa.o(i.__0sprintf) for __2sprintf
    task_main.o(.text) refers to oscilloscope.o(.text) for GetSquareWavePriod
    task_main.o(.text) refers to task_gui.o(.text) for ShowRealTimeWave
    task_main.o(.text) refers to printfa.o(i.__0printf) for __2printf
    task_main.o(.text) refers to usart1.o(.text) for USART1_Config
    task_main.o(.text) refers to atoi.o(.text) for atoi
    task_main.o(.text) refers to dfltui.o(.text) for __aeabi_ui2d
    task_main.o(.text) refers to ddiv.o(.text) for __aeabi_ddiv
    task_main.o(.text) refers to d2f.o(.text) for __aeabi_d2f
    task_main.o(.text) refers to adc.o(.text) for GetTempSensor
    task_main.o(.text) refers to main.o(.data) for LCD_Buffer_MUTEX
    task_main.o(.text) refers to tft_api.o(.bss) for LCD_Buffer
    task_main.o(.text) refers to task_main.o(.bss) for .bss
    task_main.o(.text) refers to usart1.o(.bss) for USART_Buffer
    task_main.o(.text) refers to f2d.o(.text) for __aeabi_f2d
    task_main.o(.text) refers to os_cpu_a.o(.text) for OS_CPU_SR_Save
    task_rtc.o(.text) refers to stm32f10x_rcc.o(.text) for RCC_APB1PeriphClockCmd
    task_rtc.o(.text) refers to stm32f10x_pwr.o(.text) for PWR_BackupAccessCmd
    task_rtc.o(.text) refers to stm32f10x_bkp.o(.text) for BKP_DeInit
    task_rtc.o(.text) refers to stm32f10x_rtc.o(.text) for RTC_WaitForSynchro
    task_rtc.o(.text) refers to misc.o(.text) for NVIC_PriorityGroupConfig
    task_rtc.o(.text) refers to os_mutex.o(.text) for OSMutexPend
    task_rtc.o(.text) refers to printfa.o(i.__0sprintf) for __2sprintf
    task_rtc.o(.text) refers to tft_api.o(.text) for LCD_Write_String
    task_rtc.o(.text) refers to os_core.o(.text) for OSIntExit
    task_rtc.o(.text) refers to main.o(.data) for LCD_Buffer_MUTEX
    task_rtc.o(.text) refers to task_rtc.o(.bss) for .bss
    task_rtc.o(.text) refers to tft_api.o(.bss) for LCD_Buffer
    task_rtc.o(.text) refers to task_rtc.o(.constdata) for .constdata
    task_rtc.o(.text) refers to task_rtc.o(.data) for .data
    task_rtc.o(.text) refers to os_core.o(.data) for OSIntNesting
    os_core.o(.text) refers to os_task.o(.text) for OSTaskStkChk
    os_core.o(.text) refers to os_time.o(.text) for OSTimeDly
    os_core.o(.text) refers to os_cpu_a.o(.text) for OS_CPU_SR_Save
    os_core.o(.text) refers to os_cpu_c.o(.text) for OSTaskStatHook
    os_core.o(.text) refers to os_core.o(.bss) for .bss
    os_core.o(.text) refers to os_core.o(.data) for .data
    os_core.o(.text) refers to os_core.o(.constdata) for .constdata
    os_mbox.o(.text) refers to os_cpu_a.o(.text) for OS_CPU_SR_Save
    os_mbox.o(.text) refers to os_core.o(.text) for OS_EventWaitListInit
    os_mbox.o(.text) refers to os_core.o(.data) for OSIntNesting
    os_mutex.o(.text) refers to os_cpu_a.o(.text) for OS_CPU_SR_Save
    os_mutex.o(.text) refers to os_core.o(.text) for OS_EventWaitListInit
    os_mutex.o(.text) refers to os_core.o(.data) for OSIntNesting
    os_mutex.o(.text) refers to os_core.o(.bss) for OSTCBPrioTbl
    os_sem.o(.text) refers to os_cpu_a.o(.text) for OS_CPU_SR_Save
    os_sem.o(.text) refers to os_core.o(.text) for OS_EventWaitListInit
    os_sem.o(.text) refers to os_core.o(.data) for OSIntNesting
    os_task.o(.text) refers to os_cpu_a.o(.text) for OS_CPU_SR_Save
    os_task.o(.text) refers to os_core.o(.text) for OS_Sched
    os_task.o(.text) refers to os_cpu_c.o(.text) for OSTaskStkInit
    os_task.o(.text) refers to os_core.o(.bss) for OSTCBPrioTbl
    os_task.o(.text) refers to os_core.o(.data) for OSTCBCur
    os_time.o(.text) refers to os_cpu_a.o(.text) for OS_CPU_SR_Save
    os_time.o(.text) refers to os_core.o(.text) for OS_Sched
    os_time.o(.text) refers to os_core.o(.data) for OSIntNesting
    os_time.o(.text) refers to os_core.o(.bss) for OSTCBPrioTbl
    os_cpu_a.o(.text) refers to os_core.o(.data) for OSRunning
    os_cpu_a.o(.text) refers to os_cpu_c.o(.text) for OSTaskSwHook
    gui_x_touch.o(.text) refers to tsc2046.o(.text) for TP_ReadY
    gui_x_touch.o(.text) refers to gui_x_touch.o(.constdata) for .constdata
    gui_x_ucos.o(.text) refers to os_time.o(.text) for OSTimeGet
    gui_x_ucos.o(.text) refers to os_sem.o(.text) for OSSemCreate
    gui_x_ucos.o(.text) refers to os_mbox.o(.text) for OSMboxCreate
    gui_x_ucos.o(.text) refers to gui_x_ucos.o(.data) for .data
    gui_x_ucos.o(.text) refers to os_core.o(.data) for OSTCBCur
    lcd_gui_interface.o(.text) refers to tft_drive.o(.text) for LCD1963_Init
    lcd_gui_interface.o(.text) refers to tft_api.o(.text) for Draw_Point
    lcd_gui_interface.o(.text) refers to guicore.o(.bss) for GUI_Context
    gui2dlib.o(.text) refers to guicirc.o(.text) for GL_FillCircle
    gui2dlib.o(.text) refers to lcd.o(.text) for LCD_DrawPixel
    gui2dlib.o(.text) refers to gui_fillpolygon.o(.text) for GL_FillPolygon
    gui2dlib.o(.text) refers to guitask.o(.text) for GUI_Lock
    gui2dlib.o(.text) refers to lcd_drawvline.o(.text) for LCD_DrawVLine
    gui2dlib.o(.text) refers to gui2dlib.o(.constdata) for .constdata
    gui2dlib.o(.text) refers to guicore.o(.bss) for GUI_Context
    gui_dispstring.o(.text) refers to guitask.o(.text) for GUI_Lock
    gui_dispstring.o(.text) refers to guichar.o(.text) for GUI_GetFontDistY
    gui_dispstring.o(.text) refers to guicharline.o(.text) for GUI__GetLineNumChars
    gui_dispstring.o(.text) refers to gui_uc.o(.text) for GUI_UC__NumChars2NumBytes
    gui_dispstring.o(.text) refers to guicore.o(.bss) for GUI_Context
    gui_dispstringat.o(.text) refers to guitask.o(.text) for GUI_Lock
    gui_dispstringat.o(.text) refers to gui_dispstring.o(.text) for GUI_DispString
    gui_dispstringat.o(.text) refers to guicore.o(.bss) for GUI_Context
    gui_dispstringhcenter.o(.text) refers to gui_settextalign.o(.text) for GUI_SetTextAlign
    gui_dispstringhcenter.o(.text) refers to gui_dispstringat.o(.text) for GUI_DispStringAt
    gui_dispstringhcenter.o(.text) refers to guicore.o(.bss) for GUI_Context
    gui_drawgraph.o(.text) refers to guitask.o(.text) for GUI_Lock
    gui_drawgraph.o(.text) refers to lcd_drawvline.o(.text) for LCD_DrawVLine
    gui_drawgraph.o(.text) refers to guicore.o(.bss) for GUI_Context
    gui_drawhline.o(.text) refers to guitask.o(.text) for GUI_Lock
    gui_drawhline.o(.text) refers to lcd.o(.text) for LCD_DrawHLine
    gui_drawvline.o(.text) refers to guitask.o(.text) for GUI_Lock
    gui_drawvline.o(.text) refers to lcd_drawvline.o(.text) for LCD_DrawVLine
    gui_setcolor.o(.text) refers to guitask.o(.text) for GUI_Lock
    gui_setcolor.o(.text) refers to lcd.o(.text) for LCD_SetBkColor
    gui_setfont.o(.text) refers to guitask.o(.text) for GUI_Lock
    gui_setfont.o(.text) refers to guicore.o(.bss) for GUI_Context
    gui_settextmode.o(.text) refers to guitask.o(.text) for GUI_Lock
    gui_settextmode.o(.text) refers to guicore.o(.bss) for GUI_Context
    guicore.o(.text) refers to guitask.o(.text) for GUI_Lock
    guicore.o(.text) refers to lcd.o(.text) for LCD_SetDrawMode
    guicore.o(.text) refers to gui_goto.o(.text) for GUI_GotoXY
    guicore.o(.text) refers to gui_x_ucos.o(.text) for GUI_X_Init
    guicore.o(.text) refers to lcd_l0_generic.o(.text) for LCD_L0_GetRect
    guicore.o(.text) refers to guicore.o(.data) for .data
    guicore.o(.text) refers to lcd_api.o(.data) for LCD_aAPI
    guicore.o(.text) refers to guicore.o(.bss) for .bss
    guicore.o(.text) refers to f8x16.o(.constdata) for GUI_Font8x16
    guicore.o(.text) refers to gui_uc_encodenone.o(.constdata) for GUI__API_TableNone
    guival.o(.text) refers to gui_adddecshift.o(.text) for GUI_AddDecShift
    guival.o(.text) refers to gui_dispstring.o(.text) for GUI_DispString
    guival.o(.text) refers to gui_adddecmin.o(.text) for GUI_AddDecMin
    guival.o(.text) refers to gui_dispstringat.o(.text) for GUI_DispStringAt
    guivalf.o(.text) refers to ffltui.o(.text) for __aeabi_ui2f
    guivalf.o(.text) refers to fmul.o(.text) for __aeabi_fmul
    guivalf.o(.text) refers to fadd.o(.text) for __aeabi_fadd
    guivalf.o(.text) refers to f2d.o(.text) for __aeabi_f2d
    guivalf.o(.text) refers to floor.o(i.floor) for floor
    guivalf.o(.text) refers to d2f.o(.text) for __aeabi_d2f
    guivalf.o(.text) refers to ffixi.o(.text) for __aeabi_f2iz
    guivalf.o(.text) refers to guival.o(.text) for GUI_DispSDecShift
    guivalf.o(.text) refers to gui_adddecshift.o(.text) for GUI_Long2Len
    guivalf.o(.text) refers to gui_adddecshift.o(.constdata) for GUI_Pow10
    f6x8.o(.constdata) refers to f6x8.o(.constdata) for GUI_F6x8_TL8859_1
    f6x8.o(.constdata) refers to f6x8.o(.constdata) for GUI_acFont6x8
    f6x8.o(.constdata) refers to f6x8.o(.constdata) for GUI_F6x8_TI8859_1
    f6x8.o(.constdata) refers to guicharm.o(.text) for GUIMONO_DispChar
    f6x8.o(.constdata) refers to f6x8.o(.constdata) for GUI_F6x8_Mono
    f6x8.o(.constdata) refers to guicharm.o(.text) for GUIMONO_DispChar
    f6x8.o(.constdata) refers to f6x8.o(.constdata) for GUI_F6x8_Mono
    f8x16.o(.constdata) refers to f8x16.o(.constdata) for TransList8x16
    f8x16.o(.constdata) refers to f8x16.o(.constdata) for acFont8x16
    f8x16.o(.constdata) refers to f8x16.o(.constdata) for TransInfo8x16
    f8x16.o(.constdata) refers to guicharm.o(.text) for GUIMONO_DispChar
    f8x16.o(.constdata) refers to f8x16.o(.constdata) for FontMono8x16
    f8x16.o(.constdata) refers to guicharm.o(.text) for GUIMONO_DispChar
    f8x16.o(.constdata) refers to f8x16.o(.constdata) for FontMono8x16
    f8x16.o(.constdata) refers to guicharm.o(.text) for GUIMONO_DispChar
    f8x16.o(.constdata) refers to f8x16.o(.constdata) for FontMono8x16
    f8x16.o(.constdata) refers to f8x16.o(.constdata) for acFont8x16
    f8x16.o(.constdata) refers to f8x16.o(.constdata) for TransInfo8x16
    f8x16.o(.constdata) refers to f8x16.o(.constdata) for acFont8x16
    f8x16.o(.constdata) refers to f8x16.o(.constdata) for TransInfo8x16
    f8x16.o(.constdata) refers to guicharm.o(.text) for GUIMONO_DispChar
    f8x16.o(.constdata) refers to f8x16.o(.constdata) for FontMono8x16
    f8x16.o(.constdata) refers to guicharm.o(.text) for GUIMONO_DispChar
    f8x16.o(.constdata) refers to f8x16.o(.constdata) for FontMono8x16x2
    f8x16.o(.constdata) refers to guicharm.o(.text) for GUIMONO_DispChar
    f8x16.o(.constdata) refers to f8x16.o(.constdata) for FontMono8x16x3
    guidev_banding.o(.text) refers to lcdinfo0.o(.text) for LCD_GetXSize
    guidev_banding.o(.text) refers to guidev.o(.text) for GUI_MEMDEV_CreateEx
    guidev_banding.o(.text) refers to guidev_getysize.o(.text) for GUI_MEMDEV_GetYSize
    guidev_banding.o(.text) refers to guidev_reduceysize.o(.text) for GUI_MEMDEV_ReduceYSize
    guidev_banding.o(.text) refers to guidev_setorg.o(.text) for GUI_MEMDEV_SetOrg
    guidev_banding.o(.text) refers to guidev_clear.o(.text) for GUI_MEMDEV_Clear
    gui_adddecmin.o(.text) refers to gui_adddecshift.o(.text) for GUI_Long2Len
    gui_adddecshift.o(.text) refers to gui_adddecshift.o(.constdata) for .constdata
    gui_adddecshift.o(.text) refers to guicore.o(.data) for GUI_DecChar
    gui_fillpolygon.o(.text) refers to lcd.o(.text) for LCD_DrawHLine
    gui_fillpolygon.o(.text) refers to guitask.o(.text) for GUI_Lock
    gui_fillpolygon.o(.text) refers to gui_fillpolygon.o(.data) for .data
    gui_fillpolygon.o(.text) refers to gui_fillpolygon.o(.bss) for .bss
    gui_fillpolygon.o(.text) refers to guicore.o(.bss) for GUI_Context
    gui_goto.o(.text) refers to guitask.o(.text) for GUI_Lock
    gui_goto.o(.text) refers to guicore.o(.bss) for GUI_Context
    gui_settextalign.o(.text) refers to guitask.o(.text) for GUI_Lock
    gui_settextalign.o(.text) refers to guicore.o(.bss) for GUI_Context
    gui_uc.o(.text) refers to guitask.o(.text) for GUI_Lock
    gui_uc.o(.text) refers to guicore.o(.bss) for GUI_Context
    gui_uc_encodenone.o(.text) refers to guitask.o(.text) for GUI_Lock
    gui_uc_encodenone.o(.text) refers to gui_uc_encodenone.o(.constdata) for .constdata
    gui_uc_encodenone.o(.text) refers to guicore.o(.bss) for GUI_Context
    gui_uc_encodenone.o(.constdata) refers to gui_uc_encodenone.o(.text) for _GetCharCode
    guichar.o(.text) refers to guitask.o(.text) for GUI_Lock
    guichar.o(.text) refers to guicore.o(.bss) for GUI_Context
    guichar.o(.text) refers to guicore.o(.data) for GUI_pfDispCharStyle
    guicharline.o(.text) refers to gui_rectsintersect.o(.text) for GUI_RectsIntersect
    guicharline.o(.text) refers to gui_uc.o(.text) for GUI_UC__GetCharCodeInc
    guicharline.o(.text) refers to guichar.o(.text) for GUI_GetCharDistX
    guicharline.o(.text) refers to guicore.o(.bss) for GUI_Context
    guicharline.o(.text) refers to guicore.o(.data) for GUI_pfDispCharStyle
    guicharline.o(.text) refers to guicore.o(.data) for GUI_pLCD_APIList
    guicharm.o(.text) refers to lcd.o(.text) for LCD_SetDrawMode
    guicharm.o(.text) refers to guicore.o(.bss) for GUI_Context
    guicirc.o(.text) refers to lcd.o(.text) for LCD_DrawPixel
    guicirc.o(.text) refers to guitask.o(.text) for GUI_Lock
    guicirc.o(.text) refers to gui2dlib.o(.text) for GL_DrawLine1
    guitask.o(.text) refers to gui_x_ucos.o(.text) for GUI_X_Unlock
    guitask.o(.text) refers to memmovea.o(.text) for __aeabi_memcpy4
    guitask.o(.text) refers to guitask.o(.data) for .data
    guitask.o(.text) refers to guitask.o(.bss) for .bss
    guitask.o(.text) refers to guicore.o(.bss) for GUI_Context
    lcd.o(.text) refers to lcd_gui_interface.o(.text) for LCD_L0_Init
    lcd.o(.text) refers to lcdcolor.o(.text) for LCD_InitLUT
    lcd.o(.text) refers to guicore.o(.bss) for GUI_Context
    lcd.o(.text) refers to guicore.o(.data) for GUI_pLCD_APIList
    lcd_api.o(.constdata) refers to lcd_l0_generic.o(.text) for LCD_L0_Color2Index
    lcd_api.o(.constdata) refers to lcd_gui_interface.o(.text) for LCD_L0_DrawBitmap
    lcd_api.o(.constdata) refers to guidev_16.o(.constdata) for GUI_MEMDEV__APIList16
    lcd_api.o(.data) refers to lcd_api.o(.constdata) for LCD_L0_APIList
    lcd_drawvline.o(.text) refers to guicore.o(.bss) for GUI_Context
    lcd_l0_generic.o(.text) refers to lcdpm565.o(.text) for LCD_Color2Index_M565
    lcd_l0_generic.o(.text) refers to lcdpm565_index2color.o(.text) for LCD_Index2Color_M565
    guidev.o(.text) refers to guialloc.o(.text) for GUI_ALLOC_h2p
    guidev.o(.text) refers to guitask.o(.text) for GUI_Lock
    guidev.o(.text) refers to gui_selectlcd.o(.text) for GUI_SelectLCD
    guidev.o(.text) refers to guidev_usage.o(.text) for GUI_USAGE_DecUseCnt
    guidev.o(.text) refers to guidev_usagebm.o(.text) for GUI_USAGE_BM_Create
    guidev.o(.text) refers to gui_alloc_alloczero.o(.text) for GUI_ALLOC_AllocZero
    guidev.o(.text) refers to lcdinfo0.o(.text) for LCD_GetNumColors
    guidev.o(.text) refers to lcd.o(.text) for LCD_SetClipRectMax
    guidev.o(.text) refers to guicore.o(.bss) for GUI_Context
    guidev.o(.text) refers to lcd_api.o(.data) for LCD_aAPI
    guidev_clear.o(.text) refers to guitask.o(.text) for GUI_Lock
    guidev_clear.o(.text) refers to guialloc.o(.text) for GUI_ALLOC_h2p
    guidev_clear.o(.text) refers to guicore.o(.bss) for GUI_Context
    guidev_getysize.o(.text) refers to guitask.o(.text) for GUI_Lock
    guidev_getysize.o(.text) refers to guialloc.o(.text) for GUI_ALLOC_h2p
    guidev_getysize.o(.text) refers to guicore.o(.bss) for GUI_Context
    guidev_reduceysize.o(.text) refers to guitask.o(.text) for GUI_Lock
    guidev_reduceysize.o(.text) refers to guialloc.o(.text) for GUI_ALLOC_h2p
    guidev_reduceysize.o(.text) refers to guicore.o(.bss) for GUI_Context
    guidev_setorg.o(.text) refers to guitask.o(.text) for GUI_Lock
    guidev_setorg.o(.text) refers to guialloc.o(.text) for GUI_ALLOC_h2p
    guidev_setorg.o(.text) refers to lcd.o(.text) for LCD_SetClipRectMax
    guidev_setorg.o(.text) refers to guicore.o(.bss) for GUI_Context
    gui_alloc_alloczero.o(.text) refers to guitask.o(.text) for GUI_Lock
    gui_alloc_alloczero.o(.text) refers to guialloc.o(.text) for GUI_ALLOC_AllocNoInit
    gui_alloc_alloczero.o(.text) refers to gui__memset.o(.text) for GUI__memset
    gui_selectlcd.o(.text) refers to guitask.o(.text) for GUI_Lock
    gui_selectlcd.o(.text) refers to lcd_selectlcd.o(.text) for LCD_SelectLCD
    gui_selectlcd.o(.text) refers to lcd_updatecolorindices.o(.text) for LCD_UpdateColorIndices
    guialloc.o(.text) refers to memmovea.o(.text) for __aeabi_memmove
    guialloc.o(.text) refers to guitask.o(.text) for GUI_Lock
    guialloc.o(.text) refers to guialloc.o(.bss) for .bss
    guialloc.o(.text) refers to guialloc.o(.data) for .data
    lcdcolor.o(.text) refers to lcd.o(.text) for LCD_Color2Index
    lcdcolor.o(.text) refers to lcdcolor.o(.bss) for .bss
    guidev_16.o(.text) refers to guialloc.o(.text) for GUI_ALLOC_h2p
    guidev_16.o(.text) refers to guidev_usage.o(.text) for GUI_USAGE_AddRect
    guidev_16.o(.text) refers to memmovea.o(.text) for __aeabi_memcpy
    guidev_16.o(.text) refers to lcd_mirror.o(.constdata) for LCD_aMirror
    guidev_16.o(.text) refers to guicore.o(.bss) for GUI_Context
    guidev_16.o(.text) refers to guidev_16.o(.constdata) for .constdata
    guidev_16.o(.text) refers to gui__memset16.o(.text) for GUI__memset16
    guidev_16.o(.constdata) refers to guidev.o(.text) for GUI_MEMDEV__Color2Index
    guidev_16.o(.constdata) refers to guidev_16.o(.text) for _DrawBitmap
    guidev_usage.o(.text) refers to guitask.o(.text) for GUI_Lock
    guidev_usage.o(.text) refers to guialloc.o(.text) for GUI_ALLOC_h2p
    guidev_usage.o(.text) refers to guicore.o(.bss) for GUI_Context
    guidev_usagebm.o(.text) refers to memseta.o(.text) for __aeabi_memset
    guidev_usagebm.o(.text) refers to guialloc.o(.text) for GUI_ALLOC_Free
    guidev_usagebm.o(.text) refers to gui_alloc_alloczero.o(.text) for GUI_ALLOC_AllocZero
    guidev_usagebm.o(.text) refers to guitask.o(.text) for GUI_Lock
    guidev_usagebm.o(.text) refers to guidev_usagebm.o(.constdata) for .constdata
    guidev_usagebm.o(.constdata) refers to guidev_usagebm.o(.text) for GUI_USAGE_BM_AddPixel
    lcd_selectlcd.o(.text) refers to lcd.o(.text) for LCD_SetClipRectMax
    lcd_selectlcd.o(.text) refers to lcd_api.o(.data) for LCD_aAPI
    lcd_selectlcd.o(.text) refers to guicore.o(.bss) for GUI_Context
    lcd_updatecolorindices.o(.text) refers to lcd.o(.text) for LCD_Color2Index
    lcd_updatecolorindices.o(.text) refers to guicore.o(.bss) for GUI_Context
    floor.o(i.__softfp_floor) refers (Special) to iusefp.o(.text) for __I$use$fp
    floor.o(i.__softfp_floor) refers to floor.o(i.floor) for floor
    floor.o(i.floor) refers (Special) to iusefp.o(.text) for __I$use$fp
    floor.o(i.floor) refers to dadd.o(.text) for __aeabi_dadd
    floor.o(i.floor) refers to cdrcmple.o(.text) for __aeabi_cdrcmple
    sin.o(i.__softfp_sin) refers (Special) to iusefp.o(.text) for __I$use$fp
    sin.o(i.__softfp_sin) refers to sin.o(i.sin) for sin
    sin.o(i.sin) refers (Special) to iusefp.o(.text) for __I$use$fp
    sin.o(i.sin) refers to errno.o(i.__set_errno) for __set_errno
    sin.o(i.sin) refers to ddiv.o(.text) for __aeabi_ddiv
    sin.o(i.sin) refers to dscalb.o(.text) for __ARM_scalbn
    sin.o(i.sin) refers to rred.o(i.__ieee754_rem_pio2) for __ieee754_rem_pio2
    sin.o(i.sin) refers to cos_i.o(i.__kernel_cos) for __kernel_cos
    sin.o(i.sin) refers to sin_i.o(i.__kernel_sin) for __kernel_sin
    sin_x.o(i.____softfp_sin$lsc) refers (Special) to iusefp.o(.text) for __I$use$fp
    sin_x.o(i.____softfp_sin$lsc) refers to sin_x.o(i.__sin$lsc) for __sin$lsc
    sin_x.o(i.__sin$lsc) refers (Special) to iusefp.o(.text) for __I$use$fp
    sin_x.o(i.__sin$lsc) refers to errno.o(i.__set_errno) for __set_errno
    sin_x.o(i.__sin$lsc) refers to dscalb.o(.text) for __ARM_scalbn
    sin_x.o(i.__sin$lsc) refers to rred.o(i.__ieee754_rem_pio2) for __ieee754_rem_pio2
    sin_x.o(i.__sin$lsc) refers to cos_i.o(i.__kernel_cos) for __kernel_cos
    sin_x.o(i.__sin$lsc) refers to sin_i.o(i.__kernel_sin) for __kernel_sin
    entry.o(.ARM.Collect$$$$00000000) refers (Special) to entry10a.o(.ARM.Collect$$$$0000000D) for __rt_final_cpp
    entry.o(.ARM.Collect$$$$00000000) refers (Special) to entry11a.o(.ARM.Collect$$$$0000000F) for __rt_final_exit
    entry.o(.ARM.Collect$$$$00000000) refers (Special) to entry7b.o(.ARM.Collect$$$$00000008) for _main_clock
    entry.o(.ARM.Collect$$$$00000000) refers (Special) to entry8b.o(.ARM.Collect$$$$0000000A) for _main_cpp_init
    entry.o(.ARM.Collect$$$$00000000) refers (Special) to entry9a.o(.ARM.Collect$$$$0000000B) for _main_init
    entry.o(.ARM.Collect$$$$00000000) refers (Special) to entry5.o(.ARM.Collect$$$$00000004) for _main_scatterload
    entry.o(.ARM.Collect$$$$00000000) refers (Special) to entry2.o(.ARM.Collect$$$$00000001) for _main_stk
    printfb.o(i.__0fprintf$bare) refers to printfb.o(i._printf_core) for _printf_core
    printfb.o(i.__0fprintf$bare) refers to usart1.o(.text) for fputc
    printfb.o(i.__0printf$bare) refers to printfb.o(i._printf_core) for _printf_core
    printfb.o(i.__0printf$bare) refers to usart1.o(.text) for fputc
    printfb.o(i.__0printf$bare) refers to stdout.o(.data) for __stdout
    printfb.o(i.__0snprintf$bare) refers to printfb.o(i._printf_core) for _printf_core
    printfb.o(i.__0snprintf$bare) refers to printfb.o(i._snputc) for _snputc
    printfb.o(i.__0sprintf$bare) refers to printfb.o(i._printf_core) for _printf_core
    printfb.o(i.__0sprintf$bare) refers to printfb.o(i._sputc) for _sputc
    printfb.o(i.__0vfprintf$bare) refers to printfb.o(i._printf_core) for _printf_core
    printfb.o(i.__0vfprintf$bare) refers to usart1.o(.text) for fputc
    printfb.o(i.__0vprintf$bare) refers to printfb.o(i._printf_core) for _printf_core
    printfb.o(i.__0vprintf$bare) refers to usart1.o(.text) for fputc
    printfb.o(i.__0vprintf$bare) refers to stdout.o(.data) for __stdout
    printfb.o(i.__0vsnprintf$bare) refers to printfb.o(i._printf_core) for _printf_core
    printfb.o(i.__0vsnprintf$bare) refers to printfb.o(i._snputc) for _snputc
    printfb.o(i.__0vsprintf$bare) refers to printfb.o(i._printf_core) for _printf_core
    printfb.o(i.__0vsprintf$bare) refers to printfb.o(i._sputc) for _sputc
    printf0.o(i.__0fprintf$0) refers to printf0.o(i._printf_core) for _printf_core
    printf0.o(i.__0fprintf$0) refers to usart1.o(.text) for fputc
    printf0.o(i.__0printf$0) refers to printf0.o(i._printf_core) for _printf_core
    printf0.o(i.__0printf$0) refers to usart1.o(.text) for fputc
    printf0.o(i.__0printf$0) refers to stdout.o(.data) for __stdout
    printf0.o(i.__0snprintf$0) refers to printf0.o(i._printf_core) for _printf_core
    printf0.o(i.__0snprintf$0) refers to printf0.o(i._snputc) for _snputc
    printf0.o(i.__0sprintf$0) refers to printf0.o(i._printf_core) for _printf_core
    printf0.o(i.__0sprintf$0) refers to printf0.o(i._sputc) for _sputc
    printf0.o(i.__0vfprintf$0) refers to printf0.o(i._printf_core) for _printf_core
    printf0.o(i.__0vfprintf$0) refers to usart1.o(.text) for fputc
    printf0.o(i.__0vprintf$0) refers to printf0.o(i._printf_core) for _printf_core
    printf0.o(i.__0vprintf$0) refers to usart1.o(.text) for fputc
    printf0.o(i.__0vprintf$0) refers to stdout.o(.data) for __stdout
    printf0.o(i.__0vsnprintf$0) refers to printf0.o(i._printf_core) for _printf_core
    printf0.o(i.__0vsnprintf$0) refers to printf0.o(i._snputc) for _snputc
    printf0.o(i.__0vsprintf$0) refers to printf0.o(i._printf_core) for _printf_core
    printf0.o(i.__0vsprintf$0) refers to printf0.o(i._sputc) for _sputc
    printf1.o(i.__0fprintf$1) refers to printf1.o(i._printf_core) for _printf_core
    printf1.o(i.__0fprintf$1) refers to usart1.o(.text) for fputc
    printf1.o(i.__0printf$1) refers to printf1.o(i._printf_core) for _printf_core
    printf1.o(i.__0printf$1) refers to usart1.o(.text) for fputc
    printf1.o(i.__0printf$1) refers to stdout.o(.data) for __stdout
    printf1.o(i.__0snprintf$1) refers to printf1.o(i._printf_core) for _printf_core
    printf1.o(i.__0snprintf$1) refers to printf1.o(i._snputc) for _snputc
    printf1.o(i.__0sprintf$1) refers to printf1.o(i._printf_core) for _printf_core
    printf1.o(i.__0sprintf$1) refers to printf1.o(i._sputc) for _sputc
    printf1.o(i.__0vfprintf$1) refers to printf1.o(i._printf_core) for _printf_core
    printf1.o(i.__0vfprintf$1) refers to usart1.o(.text) for fputc
    printf1.o(i.__0vprintf$1) refers to printf1.o(i._printf_core) for _printf_core
    printf1.o(i.__0vprintf$1) refers to usart1.o(.text) for fputc
    printf1.o(i.__0vprintf$1) refers to stdout.o(.data) for __stdout
    printf1.o(i.__0vsnprintf$1) refers to printf1.o(i._printf_core) for _printf_core
    printf1.o(i.__0vsnprintf$1) refers to printf1.o(i._snputc) for _snputc
    printf1.o(i.__0vsprintf$1) refers to printf1.o(i._printf_core) for _printf_core
    printf1.o(i.__0vsprintf$1) refers to printf1.o(i._sputc) for _sputc
    printf1.o(i._printf_core) refers to uidiv.o(.text) for __aeabi_uidivmod
    printf2.o(i.__0fprintf$2) refers to printf2.o(i._printf_core) for _printf_core
    printf2.o(i.__0fprintf$2) refers to usart1.o(.text) for fputc
    printf2.o(i.__0printf$2) refers to printf2.o(i._printf_core) for _printf_core
    printf2.o(i.__0printf$2) refers to usart1.o(.text) for fputc
    printf2.o(i.__0printf$2) refers to stdout.o(.data) for __stdout
    printf2.o(i.__0snprintf$2) refers to printf2.o(i._printf_core) for _printf_core
    printf2.o(i.__0snprintf$2) refers to printf2.o(i._snputc) for _snputc
    printf2.o(i.__0sprintf$2) refers to printf2.o(i._printf_core) for _printf_core
    printf2.o(i.__0sprintf$2) refers to printf2.o(i._sputc) for _sputc
    printf2.o(i.__0vfprintf$2) refers to printf2.o(i._printf_core) for _printf_core
    printf2.o(i.__0vfprintf$2) refers to usart1.o(.text) for fputc
    printf2.o(i.__0vprintf$2) refers to printf2.o(i._printf_core) for _printf_core
    printf2.o(i.__0vprintf$2) refers to usart1.o(.text) for fputc
    printf2.o(i.__0vprintf$2) refers to stdout.o(.data) for __stdout
    printf2.o(i.__0vsnprintf$2) refers to printf2.o(i._printf_core) for _printf_core
    printf2.o(i.__0vsnprintf$2) refers to printf2.o(i._snputc) for _snputc
    printf2.o(i.__0vsprintf$2) refers to printf2.o(i._printf_core) for _printf_core
    printf2.o(i.__0vsprintf$2) refers to printf2.o(i._sputc) for _sputc
    printf3.o(i.__0fprintf$3) refers to printf3.o(i._printf_core) for _printf_core
    printf3.o(i.__0fprintf$3) refers to usart1.o(.text) for fputc
    printf3.o(i.__0printf$3) refers to printf3.o(i._printf_core) for _printf_core
    printf3.o(i.__0printf$3) refers to usart1.o(.text) for fputc
    printf3.o(i.__0printf$3) refers to stdout.o(.data) for __stdout
    printf3.o(i.__0snprintf$3) refers to printf3.o(i._printf_core) for _printf_core
    printf3.o(i.__0snprintf$3) refers to printf3.o(i._snputc) for _snputc
    printf3.o(i.__0sprintf$3) refers to printf3.o(i._printf_core) for _printf_core
    printf3.o(i.__0sprintf$3) refers to printf3.o(i._sputc) for _sputc
    printf3.o(i.__0vfprintf$3) refers to printf3.o(i._printf_core) for _printf_core
    printf3.o(i.__0vfprintf$3) refers to usart1.o(.text) for fputc
    printf3.o(i.__0vprintf$3) refers to printf3.o(i._printf_core) for _printf_core
    printf3.o(i.__0vprintf$3) refers to usart1.o(.text) for fputc
    printf3.o(i.__0vprintf$3) refers to stdout.o(.data) for __stdout
    printf3.o(i.__0vsnprintf$3) refers to printf3.o(i._printf_core) for _printf_core
    printf3.o(i.__0vsnprintf$3) refers to printf3.o(i._snputc) for _snputc
    printf3.o(i.__0vsprintf$3) refers to printf3.o(i._printf_core) for _printf_core
    printf3.o(i.__0vsprintf$3) refers to printf3.o(i._sputc) for _sputc
    printf3.o(i._printf_core) refers to uidiv.o(.text) for __aeabi_uidivmod
    printf4.o(i.__0fprintf$4) refers to printf4.o(i._printf_core) for _printf_core
    printf4.o(i.__0fprintf$4) refers to usart1.o(.text) for fputc
    printf4.o(i.__0printf$4) refers to printf4.o(i._printf_core) for _printf_core
    printf4.o(i.__0printf$4) refers to usart1.o(.text) for fputc
    printf4.o(i.__0printf$4) refers to stdout.o(.data) for __stdout
    printf4.o(i.__0snprintf$4) refers to printf4.o(i._printf_core) for _printf_core
    printf4.o(i.__0snprintf$4) refers to printf4.o(i._snputc) for _snputc
    printf4.o(i.__0sprintf$4) refers to printf4.o(i._printf_core) for _printf_core
    printf4.o(i.__0sprintf$4) refers to printf4.o(i._sputc) for _sputc
    printf4.o(i.__0vfprintf$4) refers to printf4.o(i._printf_core) for _printf_core
    printf4.o(i.__0vfprintf$4) refers to usart1.o(.text) for fputc
    printf4.o(i.__0vprintf$4) refers to printf4.o(i._printf_core) for _printf_core
    printf4.o(i.__0vprintf$4) refers to usart1.o(.text) for fputc
    printf4.o(i.__0vprintf$4) refers to stdout.o(.data) for __stdout
    printf4.o(i.__0vsnprintf$4) refers to printf4.o(i._printf_core) for _printf_core
    printf4.o(i.__0vsnprintf$4) refers to printf4.o(i._snputc) for _snputc
    printf4.o(i.__0vsprintf$4) refers to printf4.o(i._printf_core) for _printf_core
    printf4.o(i.__0vsprintf$4) refers to printf4.o(i._sputc) for _sputc
    printf4.o(i._printf_core) refers to uldiv.o(.text) for __aeabi_uldivmod
    printf5.o(i.__0fprintf$5) refers to printf5.o(i._printf_core) for _printf_core
    printf5.o(i.__0fprintf$5) refers to usart1.o(.text) for fputc
    printf5.o(i.__0printf$5) refers to printf5.o(i._printf_core) for _printf_core
    printf5.o(i.__0printf$5) refers to usart1.o(.text) for fputc
    printf5.o(i.__0printf$5) refers to stdout.o(.data) for __stdout
    printf5.o(i.__0snprintf$5) refers to printf5.o(i._printf_core) for _printf_core
    printf5.o(i.__0snprintf$5) refers to printf5.o(i._snputc) for _snputc
    printf5.o(i.__0sprintf$5) refers to printf5.o(i._printf_core) for _printf_core
    printf5.o(i.__0sprintf$5) refers to printf5.o(i._sputc) for _sputc
    printf5.o(i.__0vfprintf$5) refers to printf5.o(i._printf_core) for _printf_core
    printf5.o(i.__0vfprintf$5) refers to usart1.o(.text) for fputc
    printf5.o(i.__0vprintf$5) refers to printf5.o(i._printf_core) for _printf_core
    printf5.o(i.__0vprintf$5) refers to usart1.o(.text) for fputc
    printf5.o(i.__0vprintf$5) refers to stdout.o(.data) for __stdout
    printf5.o(i.__0vsnprintf$5) refers to printf5.o(i._printf_core) for _printf_core
    printf5.o(i.__0vsnprintf$5) refers to printf5.o(i._snputc) for _snputc
    printf5.o(i.__0vsprintf$5) refers to printf5.o(i._printf_core) for _printf_core
    printf5.o(i.__0vsprintf$5) refers to printf5.o(i._sputc) for _sputc
    printf5.o(i._printf_core) refers to uldiv.o(.text) for __aeabi_uldivmod
    printf6.o(i.__0fprintf$6) refers to printf6.o(i._printf_core) for _printf_core
    printf6.o(i.__0fprintf$6) refers to usart1.o(.text) for fputc
    printf6.o(i.__0printf$6) refers to printf6.o(i._printf_core) for _printf_core
    printf6.o(i.__0printf$6) refers to usart1.o(.text) for fputc
    printf6.o(i.__0printf$6) refers to stdout.o(.data) for __stdout
    printf6.o(i.__0snprintf$6) refers to printf6.o(i._printf_core) for _printf_core
    printf6.o(i.__0snprintf$6) refers to printf6.o(i._snputc) for _snputc
    printf6.o(i.__0sprintf$6) refers to printf6.o(i._printf_core) for _printf_core
    printf6.o(i.__0sprintf$6) refers to printf6.o(i._sputc) for _sputc
    printf6.o(i.__0vfprintf$6) refers to printf6.o(i._printf_core) for _printf_core
    printf6.o(i.__0vfprintf$6) refers to usart1.o(.text) for fputc
    printf6.o(i.__0vprintf$6) refers to printf6.o(i._printf_core) for _printf_core
    printf6.o(i.__0vprintf$6) refers to usart1.o(.text) for fputc
    printf6.o(i.__0vprintf$6) refers to stdout.o(.data) for __stdout
    printf6.o(i.__0vsnprintf$6) refers to printf6.o(i._printf_core) for _printf_core
    printf6.o(i.__0vsnprintf$6) refers to printf6.o(i._snputc) for _snputc
    printf6.o(i.__0vsprintf$6) refers to printf6.o(i._printf_core) for _printf_core
    printf6.o(i.__0vsprintf$6) refers to printf6.o(i._sputc) for _sputc
    printf6.o(i._printf_core) refers to printf6.o(i._printf_pre_padding) for _printf_pre_padding
    printf6.o(i._printf_core) refers to uidiv.o(.text) for __aeabi_uidivmod
    printf6.o(i._printf_core) refers to printf6.o(i._printf_post_padding) for _printf_post_padding
    printf7.o(i.__0fprintf$7) refers to printf7.o(i._printf_core) for _printf_core
    printf7.o(i.__0fprintf$7) refers to usart1.o(.text) for fputc
    printf7.o(i.__0printf$7) refers to printf7.o(i._printf_core) for _printf_core
    printf7.o(i.__0printf$7) refers to usart1.o(.text) for fputc
    printf7.o(i.__0printf$7) refers to stdout.o(.data) for __stdout
    printf7.o(i.__0snprintf$7) refers to printf7.o(i._printf_core) for _printf_core
    printf7.o(i.__0snprintf$7) refers to printf7.o(i._snputc) for _snputc
    printf7.o(i.__0sprintf$7) refers to printf7.o(i._printf_core) for _printf_core
    printf7.o(i.__0sprintf$7) refers to printf7.o(i._sputc) for _sputc
    printf7.o(i.__0vfprintf$7) refers to printf7.o(i._printf_core) for _printf_core
    printf7.o(i.__0vfprintf$7) refers to usart1.o(.text) for fputc
    printf7.o(i.__0vprintf$7) refers to printf7.o(i._printf_core) for _printf_core
    printf7.o(i.__0vprintf$7) refers to usart1.o(.text) for fputc
    printf7.o(i.__0vprintf$7) refers to stdout.o(.data) for __stdout
    printf7.o(i.__0vsnprintf$7) refers to printf7.o(i._printf_core) for _printf_core
    printf7.o(i.__0vsnprintf$7) refers to printf7.o(i._snputc) for _snputc
    printf7.o(i.__0vsprintf$7) refers to printf7.o(i._printf_core) for _printf_core
    printf7.o(i.__0vsprintf$7) refers to printf7.o(i._sputc) for _sputc
    printf7.o(i._printf_core) refers to printf7.o(i._printf_pre_padding) for _printf_pre_padding
    printf7.o(i._printf_core) refers to uldiv.o(.text) for __aeabi_uldivmod
    printf7.o(i._printf_core) refers to printf7.o(i._printf_post_padding) for _printf_post_padding
    printf8.o(i.__0fprintf$8) refers to printf8.o(i._printf_core) for _printf_core
    printf8.o(i.__0fprintf$8) refers to usart1.o(.text) for fputc
    printf8.o(i.__0printf$8) refers to printf8.o(i._printf_core) for _printf_core
    printf8.o(i.__0printf$8) refers to usart1.o(.text) for fputc
    printf8.o(i.__0printf$8) refers to stdout.o(.data) for __stdout
    printf8.o(i.__0snprintf$8) refers to printf8.o(i._printf_core) for _printf_core
    printf8.o(i.__0snprintf$8) refers to printf8.o(i._snputc) for _snputc
    printf8.o(i.__0sprintf$8) refers to printf8.o(i._printf_core) for _printf_core
    printf8.o(i.__0sprintf$8) refers to printf8.o(i._sputc) for _sputc
    printf8.o(i.__0vfprintf$8) refers to printf8.o(i._printf_core) for _printf_core
    printf8.o(i.__0vfprintf$8) refers to usart1.o(.text) for fputc
    printf8.o(i.__0vprintf$8) refers to printf8.o(i._printf_core) for _printf_core
    printf8.o(i.__0vprintf$8) refers to usart1.o(.text) for fputc
    printf8.o(i.__0vprintf$8) refers to stdout.o(.data) for __stdout
    printf8.o(i.__0vsnprintf$8) refers to printf8.o(i._printf_core) for _printf_core
    printf8.o(i.__0vsnprintf$8) refers to printf8.o(i._snputc) for _snputc
    printf8.o(i.__0vsprintf$8) refers to printf8.o(i._printf_core) for _printf_core
    printf8.o(i.__0vsprintf$8) refers to printf8.o(i._sputc) for _sputc
    printf8.o(i._printf_core) refers to printf8.o(i._printf_pre_padding) for _printf_pre_padding
    printf8.o(i._printf_core) refers to uldiv.o(.text) for __aeabi_uldivmod
    printf8.o(i._printf_core) refers to printf8.o(i._printf_post_padding) for _printf_post_padding
    printfa.o(i.__0fprintf) refers (Special) to iusefp.o(.text) for __I$use$fp
    printfa.o(i.__0fprintf) refers to printfa.o(i._printf_core) for _printf_core
    printfa.o(i.__0fprintf) refers to usart1.o(.text) for fputc
    printfa.o(i.__0printf) refers (Special) to iusefp.o(.text) for __I$use$fp
    printfa.o(i.__0printf) refers to printfa.o(i._printf_core) for _printf_core
    printfa.o(i.__0printf) refers to usart1.o(.text) for fputc
    printfa.o(i.__0printf) refers to stdout.o(.data) for __stdout
    printfa.o(i.__0snprintf) refers (Special) to iusefp.o(.text) for __I$use$fp
    printfa.o(i.__0snprintf) refers to printfa.o(i._printf_core) for _printf_core
    printfa.o(i.__0snprintf) refers to printfa.o(i._snputc) for _snputc
    printfa.o(i.__0sprintf) refers (Special) to iusefp.o(.text) for __I$use$fp
    printfa.o(i.__0sprintf) refers to printfa.o(i._printf_core) for _printf_core
    printfa.o(i.__0sprintf) refers to printfa.o(i._sputc) for _sputc
    printfa.o(i.__0vfprintf) refers (Special) to iusefp.o(.text) for __I$use$fp
    printfa.o(i.__0vfprintf) refers to printfa.o(i._printf_core) for _printf_core
    printfa.o(i.__0vfprintf) refers to usart1.o(.text) for fputc
    printfa.o(i.__0vprintf) refers (Special) to iusefp.o(.text) for __I$use$fp
    printfa.o(i.__0vprintf) refers to printfa.o(i._printf_core) for _printf_core
    printfa.o(i.__0vprintf) refers to usart1.o(.text) for fputc
    printfa.o(i.__0vprintf) refers to stdout.o(.data) for __stdout
    printfa.o(i.__0vsnprintf) refers (Special) to iusefp.o(.text) for __I$use$fp
    printfa.o(i.__0vsnprintf) refers to printfa.o(i._printf_core) for _printf_core
    printfa.o(i.__0vsnprintf) refers to printfa.o(i._snputc) for _snputc
    printfa.o(i.__0vsprintf) refers (Special) to iusefp.o(.text) for __I$use$fp
    printfa.o(i.__0vsprintf) refers to printfa.o(i._printf_core) for _printf_core
    printfa.o(i.__0vsprintf) refers to printfa.o(i._sputc) for _sputc
    printfa.o(i._fp_digits) refers (Special) to iusefp.o(.text) for __I$use$fp
    printfa.o(i._fp_digits) refers to dmul.o(.text) for __aeabi_dmul
    printfa.o(i._fp_digits) refers to ddiv.o(.text) for __aeabi_ddiv
    printfa.o(i._fp_digits) refers to cdrcmple.o(.text) for __aeabi_cdrcmple
    printfa.o(i._fp_digits) refers to dadd.o(.text) for __aeabi_dadd
    printfa.o(i._fp_digits) refers to dfixul.o(.text) for __aeabi_d2ulz
    printfa.o(i._fp_digits) refers to uldiv.o(.text) for __aeabi_uldivmod
    printfa.o(i._printf_core) refers (Special) to iusefp.o(.text) for __I$use$fp
    printfa.o(i._printf_core) refers to printfa.o(i._printf_pre_padding) for _printf_pre_padding
    printfa.o(i._printf_core) refers to uldiv.o(.text) for __aeabi_uldivmod
    printfa.o(i._printf_core) refers to printfa.o(i._printf_post_padding) for _printf_post_padding
    printfa.o(i._printf_core) refers to printfa.o(i._fp_digits) for _fp_digits
    printfa.o(i._printf_core) refers to uidiv.o(.text) for __aeabi_uidivmod
    printfa.o(i._printf_post_padding) refers (Special) to iusefp.o(.text) for __I$use$fp
    printfa.o(i._printf_pre_padding) refers (Special) to iusefp.o(.text) for __I$use$fp
    printfa.o(i._snputc) refers (Special) to iusefp.o(.text) for __I$use$fp
    printfa.o(i._sputc) refers (Special) to iusefp.o(.text) for __I$use$fp
    atoi.o(.text) refers to errno.o(i.__aeabi_errno_addr) for __aeabi_errno_addr
    atoi.o(.text) refers to strtol.o(.text) for strtol
    fadd.o(.text) refers (Special) to iusefp.o(.text) for __I$use$fp
    fadd.o(.text) refers to fepilogue.o(.text) for _float_epilogue
    fmul.o(.text) refers (Special) to iusefp.o(.text) for __I$use$fp
    fdiv.o(.text) refers (Special) to iusefp.o(.text) for __I$use$fp
    fdiv.o(.text) refers to fepilogue.o(.text) for _float_round
    fscalb.o(.text) refers (Special) to iusefp.o(.text) for __I$use$fp
    dadd.o(.text) refers (Special) to iusefp.o(.text) for __I$use$fp
    dadd.o(.text) refers to llshl.o(.text) for __aeabi_llsl
    dadd.o(.text) refers to llsshr.o(.text) for __aeabi_lasr
    dadd.o(.text) refers to depilogue.o(.text) for _double_epilogue
    dmul.o(.text) refers (Special) to iusefp.o(.text) for __I$use$fp
    dmul.o(.text) refers to depilogue.o(.text) for _double_epilogue
    ddiv.o(.text) refers (Special) to iusefp.o(.text) for __I$use$fp
    ddiv.o(.text) refers to depilogue.o(.text) for _double_round
    dscalb.o(.text) refers (Special) to iusefp.o(.text) for __I$use$fp
    ffltui.o(.text) refers (Special) to iusefp.o(.text) for __I$use$fp
    ffltui.o(.text) refers to fepilogue.o(.text) for _float_epilogue
    dflti.o(.text) refers (Special) to iusefp.o(.text) for __I$use$fp
    dflti.o(.text) refers to depilogue.o(.text) for _double_epilogue
    dfltui.o(.text) refers (Special) to iusefp.o(.text) for __I$use$fp
    dfltui.o(.text) refers to depilogue.o(.text) for _double_epilogue
    ffixi.o(.text) refers (Special) to iusefp.o(.text) for __I$use$fp
    ffixui.o(.text) refers (Special) to iusefp.o(.text) for __I$use$fp
    dfixui.o(.text) refers (Special) to iusefp.o(.text) for __I$use$fp
    dfixui.o(.text) refers to llushr.o(.text) for __aeabi_llsr
    f2d.o(.text) refers (Special) to iusefp.o(.text) for __I$use$fp
    d2f.o(.text) refers (Special) to iusefp.o(.text) for __I$use$fp
    d2f.o(.text) refers to fepilogue.o(.text) for _float_round
    cfcmple.o(.text) refers (Special) to iusefp.o(.text) for __I$use$fp
    cfrcmple.o(.text) refers (Special) to iusefp.o(.text) for __I$use$fp
    cos_i.o(i.__kernel_cos) refers (Special) to iusefp.o(.text) for __I$use$fp
    cos_i.o(i.__kernel_cos) refers to dfixi.o(.text) for __aeabi_d2iz
    cos_i.o(i.__kernel_cos) refers to dmul.o(.text) for __aeabi_dmul
    cos_i.o(i.__kernel_cos) refers to poly.o(i.__kernel_poly) for __kernel_poly
    cos_i.o(i.__kernel_cos) refers to dadd.o(.text) for __aeabi_dsub
    cos_i.o(i.__kernel_cos) refers to dscalb.o(.text) for __ARM_scalbn
    cos_i.o(i.__kernel_cos) refers to cos_i.o(.constdata) for .constdata
    cos_i.o(.constdata) refers (Special) to iusefp.o(.text) for __I$use$fp
    rred.o(i.__ieee754_rem_pio2) refers (Special) to iusefp.o(.text) for __I$use$fp
    rred.o(i.__ieee754_rem_pio2) refers to dadd.o(.text) for __aeabi_dsub
    rred.o(i.__ieee754_rem_pio2) refers to dmul.o(.text) for __aeabi_dmul
    rred.o(i.__ieee754_rem_pio2) refers to dfixi.o(.text) for __aeabi_d2iz
    rred.o(i.__ieee754_rem_pio2) refers to dflti.o(.text) for __aeabi_i2d
    rred.o(i.__ieee754_rem_pio2) refers to dfltui.o(.text) for __aeabi_ui2d
    rred.o(i.__ieee754_rem_pio2) refers to dscalb.o(.text) for __ARM_scalbn
    rred.o(i.__ieee754_rem_pio2) refers to rred.o(.constdata) for .constdata
    rred.o(i.__use_accurate_range_reduction) refers (Special) to iusefp.o(.text) for __I$use$fp
    rred.o(.constdata) refers (Special) to iusefp.o(.text) for __I$use$fp
    sin_i.o(i.__kernel_sin) refers (Special) to iusefp.o(.text) for __I$use$fp
    sin_i.o(i.__kernel_sin) refers to fpclassify.o(i.__ARM_fpclassify) for __ARM_fpclassify
    sin_i.o(i.__kernel_sin) refers to dunder.o(i.__mathlib_dbl_underflow) for __mathlib_dbl_underflow
    sin_i.o(i.__kernel_sin) refers to dmul.o(.text) for __aeabi_dmul
    sin_i.o(i.__kernel_sin) refers to poly.o(i.__kernel_poly) for __kernel_poly
    sin_i.o(i.__kernel_sin) refers to dscalb.o(.text) for __ARM_scalbn
    sin_i.o(i.__kernel_sin) refers to dadd.o(.text) for __aeabi_dsub
    sin_i.o(i.__kernel_sin) refers to sin_i.o(.constdata) for .constdata
    sin_i.o(.constdata) refers (Special) to iusefp.o(.text) for __I$use$fp
    sin_i_x.o(i.____kernel_sin$lsc) refers (Special) to iusefp.o(.text) for __I$use$fp
    sin_i_x.o(i.____kernel_sin$lsc) refers to dmul.o(.text) for __aeabi_dmul
    sin_i_x.o(i.____kernel_sin$lsc) refers to poly.o(i.__kernel_poly) for __kernel_poly
    sin_i_x.o(i.____kernel_sin$lsc) refers to dscalb.o(.text) for __ARM_scalbn
    sin_i_x.o(i.____kernel_sin$lsc) refers to dadd.o(.text) for __aeabi_dsub
    sin_i_x.o(i.____kernel_sin$lsc) refers to sin_i_x.o(.constdata) for .constdata
    sin_i_x.o(.constdata) refers (Special) to iusefp.o(.text) for __I$use$fp
    entry2.o(.ARM.Collect$$$$00000001) refers to entry2.o(.ARM.Collect$$$$00002712) for __lit__00000000
    entry2.o(.ARM.Collect$$$$00002712) refers to startup_stm32f10x_hd.o(STACK) for __initial_sp
    entry2.o(__vectab_stack_and_reset_area) refers to startup_stm32f10x_hd.o(STACK) for __initial_sp
    entry2.o(__vectab_stack_and_reset_area) refers to entry.o(.ARM.Collect$$$$00000000) for __main
    entry5.o(.ARM.Collect$$$$00000004) refers to init.o(.text) for __scatterload
    entry9a.o(.ARM.Collect$$$$0000000B) refers to main.o(.text) for main
    entry9b.o(.ARM.Collect$$$$0000000C) refers to main.o(.text) for main
    uldiv.o(.text) refers to llushr.o(.text) for __aeabi_llsr
    uldiv.o(.text) refers to llshl.o(.text) for __aeabi_llsl
    errno.o(i.__aeabi_errno_addr) refers to errno.o(.data) for .data
    errno.o(i.__read_errno) refers to errno.o(.data) for .data
    errno.o(i.__set_errno) refers to errno.o(.data) for .data
    strtol.o(.text) refers to ctype_o.o(.text) for __rt_ctype_table
    strtol.o(.text) refers to _strtoul.o(.text) for _strtoul
    strtol.o(.text) refers to errno.o(i.__aeabi_errno_addr) for __aeabi_errno_addr
    depilogue.o(.text) refers to llshl.o(.text) for __aeabi_llsl
    depilogue.o(.text) refers to llushr.o(.text) for __aeabi_llsr
    dfixul.o(.text) refers to llushr.o(.text) for __aeabi_llsr
    dfixul.o(.text) refers to llshl.o(.text) for __aeabi_llsl
    dunder.o(i.__mathlib_dbl_underflow) refers to dscalb.o(.text) for __ARM_scalbn
    fpclassify.o(i.__ARM_fpclassify) refers (Special) to iusefp.o(.text) for __I$use$fp
    poly.o(i.__kernel_poly) refers (Special) to iusefp.o(.text) for __I$use$fp
    poly.o(i.__kernel_poly) refers to dmul.o(.text) for __aeabi_dmul
    poly.o(i.__kernel_poly) refers to dadd.o(.text) for __aeabi_dadd
    init.o(.text) refers to entry5.o(.ARM.Collect$$$$00000004) for __main_after_scatterload
    ctype_o.o(.text) refers to ctype_o.o(.constdata) for .constdata
    ctype_o.o(.constdata) refers to ctype_o.o(.constdata) for __ctype_table
    isalnum_o.o(.text) refers to ctype_o.o(.text) for __rt_ctype_table
    isalpha_o.o(.text) refers to ctype_o.o(.text) for __rt_ctype_table
    isblank_o.o(.text) refers to ctype_o.o(.constdata) for __ctype_table
    iscntrl_o.o(.text) refers to ctype_o.o(.text) for __rt_ctype_table
    isdigit_o.o(.text) refers to ctype_o.o(.text) for __rt_ctype_table
    isgraph_o.o(.text) refers to ctype_o.o(.text) for __rt_ctype_table
    islower_o.o(.text) refers to ctype_o.o(.text) for __rt_ctype_table
    isprint_o.o(.text) refers to ctype_o.o(.text) for __rt_ctype_table
    ispunct_o.o(.text) refers to ctype_o.o(.text) for __rt_ctype_table
    isspace_o.o(.text) refers to ctype_o.o(.text) for __rt_ctype_table
    isupper_o.o(.text) refers to ctype_o.o(.text) for __rt_ctype_table
    isxdigit_o.o(.text) refers to ctype_o.o(.text) for __rt_ctype_table
    _strtoul.o(.text) refers to _chval.o(.text) for _chval
    _strtoul.o(.text) refers to errno.o(i.__aeabi_errno_addr) for __aeabi_errno_addr
    dfixi.o(.text) refers to llushr.o(.text) for __aeabi_llsr


==============================================================================

Removing Unused input sections from the image.

    Removing startup_stm32f10x_hd.o(HEAP), (512 bytes).
    Removing stm32f10x_i2c.o(.text), (924 bytes).
    Removing core_cm3.o(.emb_text), (32 bytes).
    Removing task_sd.o(.text), (4 bytes).
    Removing os_dbg.o(.constdata), (2 bytes).
    Removing gui_x_touch.o(.text), (268 bytes).
    Removing gui_x_touch.o(.constdata), (40 bytes).
    Removing gui_x_touch.o(.data), (2 bytes).
    Removing gui_x_touch.o(.data), (2 bytes).
    Removing guicore.o(.data), (4 bytes).
    Removing guicore.o(.data), (4 bytes).
    Removing f6x8.o(.constdata), (32 bytes).
    Removing f8x16.o(.constdata), (32 bytes).
    Removing f8x16.o(.constdata), (32 bytes).
    Removing f8x16.o(.constdata), (20 bytes).
    Removing f8x16.o(.constdata), (20 bytes).
    Removing f8x16.o(.constdata), (32 bytes).
    Removing f8x16.o(.constdata), (32 bytes).
    Removing f8x16.o(.constdata), (32 bytes).

19 unused section(s) (total 2026 bytes) removed from the image.

==============================================================================

Image Symbol Table

    Local Symbols

    Symbol Name                              Value     Ov Type        Size  Object(Section)

    ../clib/microlib/ctype/ctype.c           0x00000000   Number         0  isprint_o.o ABSOLUTE
    ../clib/microlib/ctype/ctype.c           0x00000000   Number         0  ispunct_o.o ABSOLUTE
    ../clib/microlib/ctype/ctype.c           0x00000000   Number         0  isspace_o.o ABSOLUTE
    ../clib/microlib/ctype/ctype.c           0x00000000   Number         0  isupper_o.o ABSOLUTE
    ../clib/microlib/ctype/ctype.c           0x00000000   Number         0  isxdigit_o.o ABSOLUTE
    ../clib/microlib/ctype/ctype.c           0x00000000   Number         0  islower_o.o ABSOLUTE
    ../clib/microlib/ctype/ctype.c           0x00000000   Number         0  ctype_o.o ABSOLUTE
    ../clib/microlib/ctype/ctype.c           0x00000000   Number         0  isalnum_o.o ABSOLUTE
    ../clib/microlib/ctype/ctype.c           0x00000000   Number         0  isalpha_o.o ABSOLUTE
    ../clib/microlib/ctype/ctype.c           0x00000000   Number         0  isblank_o.o ABSOLUTE
    ../clib/microlib/ctype/ctype.c           0x00000000   Number         0  iscntrl_o.o ABSOLUTE
    ../clib/microlib/ctype/ctype.c           0x00000000   Number         0  isdigit_o.o ABSOLUTE
    ../clib/microlib/ctype/ctype.c           0x00000000   Number         0  isgraph_o.o ABSOLUTE
    ../clib/microlib/division.c              0x00000000   Number         0  uldiv.o ABSOLUTE
    ../clib/microlib/division.c              0x00000000   Number         0  uidiv.o ABSOLUTE
    ../clib/microlib/errno.c                 0x00000000   Number         0  errno.o ABSOLUTE
    ../clib/microlib/init/entry.s            0x00000000   Number         0  entry.o ABSOLUTE
    ../clib/microlib/init/entry.s            0x00000000   Number         0  entry11b.o ABSOLUTE
    ../clib/microlib/init/entry.s            0x00000000   Number         0  entry2.o ABSOLUTE
    ../clib/microlib/init/entry.s            0x00000000   Number         0  entry10a.o ABSOLUTE
    ../clib/microlib/init/entry.s            0x00000000   Number         0  entry5.o ABSOLUTE
    ../clib/microlib/init/entry.s            0x00000000   Number         0  entry11a.o ABSOLUTE
    ../clib/microlib/init/entry.s            0x00000000   Number         0  entry10b.o ABSOLUTE
    ../clib/microlib/init/entry.s            0x00000000   Number         0  entry9b.o ABSOLUTE
    ../clib/microlib/init/entry.s            0x00000000   Number         0  entry9a.o ABSOLUTE
    ../clib/microlib/init/entry.s            0x00000000   Number         0  entry8b.o ABSOLUTE
    ../clib/microlib/init/entry.s            0x00000000   Number         0  entry8a.o ABSOLUTE
    ../clib/microlib/init/entry.s            0x00000000   Number         0  entry7b.o ABSOLUTE
    ../clib/microlib/init/entry.s            0x00000000   Number         0  entry7a.o ABSOLUTE
    ../clib/microlib/longlong.c              0x00000000   Number         0  llsshr.o ABSOLUTE
    ../clib/microlib/longlong.c              0x00000000   Number         0  llshl.o ABSOLUTE
    ../clib/microlib/longlong.c              0x00000000   Number         0  llushr.o ABSOLUTE
    ../clib/microlib/printf/printf.c         0x00000000   Number         0  printfb.o ABSOLUTE
    ../clib/microlib/printf/printf.c         0x00000000   Number         0  printf0.o ABSOLUTE
    ../clib/microlib/printf/printf.c         0x00000000   Number         0  printf1.o ABSOLUTE
    ../clib/microlib/printf/printf.c         0x00000000   Number         0  printf2.o ABSOLUTE
    ../clib/microlib/printf/printf.c         0x00000000   Number         0  printf4.o ABSOLUTE
    ../clib/microlib/printf/printf.c         0x00000000   Number         0  printf5.o ABSOLUTE
    ../clib/microlib/printf/printf.c         0x00000000   Number         0  printf7.o ABSOLUTE
    ../clib/microlib/printf/printf.c         0x00000000   Number         0  printf8.o ABSOLUTE
    ../clib/microlib/printf/printf.c         0x00000000   Number         0  printfa.o ABSOLUTE
    ../clib/microlib/printf/printf.c         0x00000000   Number         0  printf3.o ABSOLUTE
    ../clib/microlib/printf/printf.c         0x00000000   Number         0  printf6.o ABSOLUTE
    ../clib/microlib/printf/stubs.s          0x00000000   Number         0  stubs.o ABSOLUTE
    ../clib/microlib/stdio/streams.c         0x00000000   Number         0  stdout.o ABSOLUTE
    ../clib/microlib/string/memcpy.c         0x00000000   Number         0  memcpya.o ABSOLUTE
    ../clib/microlib/string/memcpy.c         0x00000000   Number         0  memmovea.o ABSOLUTE
    ../clib/microlib/string/memcpy.c         0x00000000   Number         0  memcpyb.o ABSOLUTE
    ../clib/microlib/string/memcpy.c         0x00000000   Number         0  memmoveb.o ABSOLUTE
    ../clib/microlib/string/memset.c         0x00000000   Number         0  memseta.o ABSOLUTE
    ../clib/microlib/stubs.s                 0x00000000   Number         0  iusefp.o ABSOLUTE
    ../clib/scanf.c                          0x00000000   Number         0  _chval.o ABSOLUTE
    ../clib/scanf.c                          0x00000000   Number         0  strtol.o ABSOLUTE
    ../clib/scanf.c                          0x00000000   Number         0  _strtoul.o ABSOLUTE
    ../clib/scanf.c                          0x00000000   Number         0  atoi.o ABSOLUTE
    ../fplib/microlib/d2f.c                  0x00000000   Number         0  d2f.o ABSOLUTE
    ../fplib/microlib/f2d.c                  0x00000000   Number         0  f2d.o ABSOLUTE
    ../fplib/microlib/fpadd.c                0x00000000   Number         0  fadd.o ABSOLUTE
    ../fplib/microlib/fpadd.c                0x00000000   Number         0  dadd.o ABSOLUTE
    ../fplib/microlib/fpdiv.c                0x00000000   Number         0  ddiv.o ABSOLUTE
    ../fplib/microlib/fpdiv.c                0x00000000   Number         0  fdiv.o ABSOLUTE
    ../fplib/microlib/fpepilogue.c           0x00000000   Number         0  depilogue.o ABSOLUTE
    ../fplib/microlib/fpepilogue.c           0x00000000   Number         0  fepilogue.o ABSOLUTE
    ../fplib/microlib/fpfix.c                0x00000000   Number         0  dfixul.o ABSOLUTE
    ../fplib/microlib/fpfix.c                0x00000000   Number         0  ffixui.o ABSOLUTE
    ../fplib/microlib/fpfix.c                0x00000000   Number         0  ffixi.o ABSOLUTE
    ../fplib/microlib/fpfix.c                0x00000000   Number         0  dfixi.o ABSOLUTE
    ../fplib/microlib/fpfix.c                0x00000000   Number         0  dfixui.o ABSOLUTE
    ../fplib/microlib/fpflt.c                0x00000000   Number         0  dfltui.o ABSOLUTE
    ../fplib/microlib/fpflt.c                0x00000000   Number         0  dflti.o ABSOLUTE
    ../fplib/microlib/fpflt.c                0x00000000   Number         0  ffltui.o ABSOLUTE
    ../fplib/microlib/fpmul.c                0x00000000   Number         0  fmul.o ABSOLUTE
    ../fplib/microlib/fpmul.c                0x00000000   Number         0  dmul.o ABSOLUTE
    ../fplib/microlib/fpscalb.c              0x00000000   Number         0  fscalb.o ABSOLUTE
    ../fplib/microlib/fpscalb.c              0x00000000   Number         0  dscalb.o ABSOLUTE
    ../mathlib/cos_i.c                       0x00000000   Number         0  cos_i.o ABSOLUTE
    ../mathlib/dunder.c                      0x00000000   Number         0  dunder.o ABSOLUTE
    ../mathlib/floor.c                       0x00000000   Number         0  floor.o ABSOLUTE
    ../mathlib/fpclassify.c                  0x00000000   Number         0  fpclassify.o ABSOLUTE
    ../mathlib/poly.c                        0x00000000   Number         0  poly.o ABSOLUTE
    ../mathlib/rred.c                        0x00000000   Number         0  rred.o ABSOLUTE
    ../mathlib/sin.c                         0x00000000   Number         0  sin_x.o ABSOLUTE
    ../mathlib/sin.c                         0x00000000   Number         0  sin.o ABSOLUTE
    ../mathlib/sin_i.c                       0x00000000   Number         0  sin_i_x.o ABSOLUTE
    ../mathlib/sin_i.c                       0x00000000   Number         0  sin_i.o ABSOLUTE
    APP\app.c                                0x00000000   Number         0  app.o ABSOLUTE
    APP\task_gui.c                           0x00000000   Number         0  task_gui.o ABSOLUTE
    APP\task_main.c                          0x00000000   Number         0  task_main.o ABSOLUTE
    APP\task_rtc.c                           0x00000000   Number         0  task_rtc.o ABSOLUTE
    APP\task_sd.c                            0x00000000   Number         0  task_sd.o ABSOLUTE
    APP\task_touchscreen.c                   0x00000000   Number         0  task_touchscreen.o ABSOLUTE
    CM3\\core_cm3.c                          0x00000000   Number         0  core_cm3.o ABSOLUTE
    CM3\core_cm3.c                           0x00000000   Number         0  core_cm3.o ABSOLUTE
    CM3\system_stm32f10x.c                   0x00000000   Number         0  system_stm32f10x.o ABSOLUTE
    FWlib\SRC\misc.c                         0x00000000   Number         0  misc.o ABSOLUTE
    FWlib\SRC\stm32f10x_adc.c                0x00000000   Number         0  stm32f10x_adc.o ABSOLUTE
    FWlib\SRC\stm32f10x_bkp.c                0x00000000   Number         0  stm32f10x_bkp.o ABSOLUTE
    FWlib\SRC\stm32f10x_dac.c                0x00000000   Number         0  stm32f10x_dac.o ABSOLUTE
    FWlib\SRC\stm32f10x_dma.c                0x00000000   Number         0  stm32f10x_dma.o ABSOLUTE
    FWlib\SRC\stm32f10x_exti.c               0x00000000   Number         0  stm32f10x_exti.o ABSOLUTE
    FWlib\SRC\stm32f10x_fsmc.c               0x00000000   Number         0  stm32f10x_fsmc.o ABSOLUTE
    FWlib\SRC\stm32f10x_gpio.c               0x00000000   Number         0  stm32f10x_gpio.o ABSOLUTE
    FWlib\SRC\stm32f10x_i2c.c                0x00000000   Number         0  stm32f10x_i2c.o ABSOLUTE
    FWlib\SRC\stm32f10x_iwdg.c               0x00000000   Number         0  stm32f10x_iwdg.o ABSOLUTE
    FWlib\SRC\stm32f10x_pwr.c                0x00000000   Number         0  stm32f10x_pwr.o ABSOLUTE
    FWlib\SRC\stm32f10x_rcc.c                0x00000000   Number         0  stm32f10x_rcc.o ABSOLUTE
    FWlib\SRC\stm32f10x_rtc.c                0x00000000   Number         0  stm32f10x_rtc.o ABSOLUTE
    FWlib\SRC\stm32f10x_spi.c                0x00000000   Number         0  stm32f10x_spi.o ABSOLUTE
    FWlib\SRC\stm32f10x_tim.c                0x00000000   Number         0  stm32f10x_tim.o ABSOLUTE
    FWlib\SRC\stm32f10x_usart.c              0x00000000   Number         0  stm32f10x_usart.o ABSOLUTE
    GUI\LCDDriver\LCD_GUI_Interface.c        0x00000000   Number         0  lcd_gui_interface.o ABSOLUTE
    GUI_X\GUI_X_Touch.c                      0x00000000   Number         0  gui_x_touch.o ABSOLUTE
    GUI_X\GUI_X_uCOS.c                       0x00000000   Number         0  gui_x_ucos.o ABSOLUTE
    Source\uCGUI\ConvertColor\LCDPM565.c     0x00000000   Number         0  lcdpm565.o ABSOLUTE
    Source\uCGUI\Core\GUI2DLib.c             0x00000000   Number         0  gui2dlib.o ABSOLUTE
    Source\uCGUI\Core\GUIAlloc.c             0x00000000   Number         0  guialloc.o ABSOLUTE
    Source\uCGUI\Core\GUIChar.c              0x00000000   Number         0  guichar.o ABSOLUTE
    Source\uCGUI\Core\GUICharLine.c          0x00000000   Number         0  guicharline.o ABSOLUTE
    Source\uCGUI\Core\GUICharM.c             0x00000000   Number         0  guicharm.o ABSOLUTE
    Source\uCGUI\Core\GUICirc.c              0x00000000   Number         0  guicirc.o ABSOLUTE
    Source\uCGUI\Core\GUICore.c              0x00000000   Number         0  guicore.o ABSOLUTE
    Source\uCGUI\Core\GUITask.c              0x00000000   Number         0  guitask.o ABSOLUTE
    Source\uCGUI\Core\GUIVal.c               0x00000000   Number         0  guival.o ABSOLUTE
    Source\uCGUI\Core\GUIValf.c              0x00000000   Number         0  guivalf.o ABSOLUTE
    Source\uCGUI\Core\GUI_ALLOC_AllocZero.c  0x00000000   Number         0  gui_alloc_alloczero.o ABSOLUTE
    Source\uCGUI\Core\GUI_AddDecMin.c        0x00000000   Number         0  gui_adddecmin.o ABSOLUTE
    Source\uCGUI\Core\GUI_AddDecShift.c      0x00000000   Number         0  gui_adddecshift.o ABSOLUTE
    Source\uCGUI\Core\GUI_DispString.c       0x00000000   Number         0  gui_dispstring.o ABSOLUTE
    Source\uCGUI\Core\GUI_DispStringAt.c     0x00000000   Number         0  gui_dispstringat.o ABSOLUTE
    Source\uCGUI\Core\GUI_DispStringHCenter.c 0x00000000   Number         0  gui_dispstringhcenter.o ABSOLUTE
    Source\uCGUI\Core\GUI_DrawGraph.c        0x00000000   Number         0  gui_drawgraph.o ABSOLUTE
    Source\uCGUI\Core\GUI_DrawHLine.c        0x00000000   Number         0  gui_drawhline.o ABSOLUTE
    Source\uCGUI\Core\GUI_DrawVLine.c        0x00000000   Number         0  gui_drawvline.o ABSOLUTE
    Source\uCGUI\Core\GUI_FillPolygon.c      0x00000000   Number         0  gui_fillpolygon.o ABSOLUTE
    Source\uCGUI\Core\GUI_Goto.c             0x00000000   Number         0  gui_goto.o ABSOLUTE
    Source\uCGUI\Core\GUI_RectsIntersect.c   0x00000000   Number         0  gui_rectsintersect.o ABSOLUTE
    Source\uCGUI\Core\GUI_SelectLCD.c        0x00000000   Number         0  gui_selectlcd.o ABSOLUTE
    Source\uCGUI\Core\GUI_SetColor.c         0x00000000   Number         0  gui_setcolor.o ABSOLUTE
    Source\uCGUI\Core\GUI_SetFont.c          0x00000000   Number         0  gui_setfont.o ABSOLUTE
    Source\uCGUI\Core\GUI_SetTextAlign.c     0x00000000   Number         0  gui_settextalign.o ABSOLUTE
    Source\uCGUI\Core\GUI_SetTextMode.c      0x00000000   Number         0  gui_settextmode.o ABSOLUTE
    Source\uCGUI\Core\GUI_UC.c               0x00000000   Number         0  gui_uc.o ABSOLUTE
    Source\uCGUI\Core\GUI_UC_EncodeNone.c    0x00000000   Number         0  gui_uc_encodenone.o ABSOLUTE
    Source\uCGUI\Core\GUI__memset.c          0x00000000   Number         0  gui__memset.o ABSOLUTE
    Source\uCGUI\Core\GUI__memset16.c        0x00000000   Number         0  gui__memset16.o ABSOLUTE
    Source\uCGUI\Core\LCD.c                  0x00000000   Number         0  lcd.o ABSOLUTE
    Source\uCGUI\Core\LCDColor.c             0x00000000   Number         0  lcdcolor.o ABSOLUTE
    Source\uCGUI\Core\LCDInfo0.c             0x00000000   Number         0  lcdinfo0.o ABSOLUTE
    Source\uCGUI\Core\LCDPM565_Index2Color.c 0x00000000   Number         0  lcdpm565_index2color.o ABSOLUTE
    Source\uCGUI\Core\LCD_API.c              0x00000000   Number         0  lcd_api.o ABSOLUTE
    Source\uCGUI\Core\LCD_DrawVLine.c        0x00000000   Number         0  lcd_drawvline.o ABSOLUTE
    Source\uCGUI\Core\LCD_L0_Generic.c       0x00000000   Number         0  lcd_l0_generic.o ABSOLUTE
    Source\uCGUI\Core\LCD_Mirror.c           0x00000000   Number         0  lcd_mirror.o ABSOLUTE
    Source\uCGUI\Core\LCD_SelectLCD.c        0x00000000   Number         0  lcd_selectlcd.o ABSOLUTE
    Source\uCGUI\Core\LCD_UpdateColorIndices.c 0x00000000   Number         0  lcd_updatecolorindices.o ABSOLUTE
    Source\uCGUI\Font\F6x8.c                 0x00000000   Number         0  f6x8.o ABSOLUTE
    Source\uCGUI\Font\F8x16.c                0x00000000   Number         0  f8x16.o ABSOLUTE
    Source\uCGUI\MemDev\GUIDEV.c             0x00000000   Number         0  guidev.o ABSOLUTE
    Source\uCGUI\MemDev\GUIDEV_16.c          0x00000000   Number         0  guidev_16.o ABSOLUTE
    Source\uCGUI\MemDev\GUIDEV_Banding.c     0x00000000   Number         0  guidev_banding.o ABSOLUTE
    Source\uCGUI\MemDev\GUIDEV_Clear.c       0x00000000   Number         0  guidev_clear.o ABSOLUTE
    Source\uCGUI\MemDev\GUIDEV_GetYSize.c    0x00000000   Number         0  guidev_getysize.o ABSOLUTE
    Source\uCGUI\MemDev\GUIDEV_ReduceYSize.c 0x00000000   Number         0  guidev_reduceysize.o ABSOLUTE
    Source\uCGUI\MemDev\GUIDEV_SetOrg.c      0x00000000   Number         0  guidev_setorg.o ABSOLUTE
    Source\uCGUI\MemDev\GUIDEV_Usage.c       0x00000000   Number         0  guidev_usage.o ABSOLUTE
    Source\uCGUI\MemDev\GUIDEV_UsageBM.c     0x00000000   Number         0  guidev_usagebm.o ABSOLUTE
    cdrcmple.s                               0x00000000   Number         0  cdrcmple.o ABSOLUTE
    cfcmple.s                                0x00000000   Number         0  cfcmple.o ABSOLUTE
    cfrcmple.s                               0x00000000   Number         0  cfrcmple.o ABSOLUTE
    dc.s                                     0x00000000   Number         0  dc.o ABSOLUTE
    handlers.s                               0x00000000   Number         0  handlers.o ABSOLUTE
    init.s                                   0x00000000   Number         0  init.o ABSOLUTE
    startup\startup_stm32f10x_hd.s           0x00000000   Number         0  startup_stm32f10x_hd.o ABSOLUTE
    uCOS-II\Ports\os_cpu_a.asm               0x00000000   Number         0  os_cpu_a.o ABSOLUTE
    uCOS-II\Ports\os_cpu_c.c                 0x00000000   Number         0  os_cpu_c.o ABSOLUTE
    uCOS-II\Ports\os_dbg.c                   0x00000000   Number         0  os_dbg.o ABSOLUTE
    uCOS-II\Source\os_core.c                 0x00000000   Number         0  os_core.o ABSOLUTE
    uCOS-II\Source\os_flag.c                 0x00000000   Number         0  os_flag.o ABSOLUTE
    uCOS-II\Source\os_mbox.c                 0x00000000   Number         0  os_mbox.o ABSOLUTE
    uCOS-II\Source\os_mem.c                  0x00000000   Number         0  os_mem.o ABSOLUTE
    uCOS-II\Source\os_mutex.c                0x00000000   Number         0  os_mutex.o ABSOLUTE
    uCOS-II\Source\os_q.c                    0x00000000   Number         0  os_q.o ABSOLUTE
    uCOS-II\Source\os_sem.c                  0x00000000   Number         0  os_sem.o ABSOLUTE
    uCOS-II\Source\os_task.c                 0x00000000   Number         0  os_task.o ABSOLUTE
    uCOS-II\Source\os_time.c                 0x00000000   Number         0  os_time.o ABSOLUTE
    uCOS-II\Source\os_tmr.c                  0x00000000   Number         0  os_tmr.o ABSOLUTE
    user\EXTI.c                              0x00000000   Number         0  exti.o ABSOLUTE
    user\adc.c                               0x00000000   Number         0  adc.o ABSOLUTE
    user\dac v2.0.c                          0x00000000   Number         0  dac v2.0.o ABSOLUTE
    user\delay v2.0.c                        0x00000000   Number         0  delay v2.0.o ABSOLUTE
    user\indkey.c                            0x00000000   Number         0  indkey.o ABSOLUTE
    user\iwdg.c                              0x00000000   Number         0  iwdg.o ABSOLUTE
    user\main.c                              0x00000000   Number         0  main.o ABSOLUTE
    user\oscilloscope.c                      0x00000000   Number         0  oscilloscope.o ABSOLUTE
    user\pincfg.c                            0x00000000   Number         0  pincfg.o ABSOLUTE
    user\stm32f10x_it.c                      0x00000000   Number         0  stm32f10x_it.o ABSOLUTE
    user\tft_api.c                           0x00000000   Number         0  tft_api.o ABSOLUTE
    user\tft_drive.c                         0x00000000   Number         0  tft_drive.o ABSOLUTE
    user\timer.c                             0x00000000   Number         0  timer.o ABSOLUTE
    user\tsc2046.c                           0x00000000   Number         0  tsc2046.o ABSOLUTE
    user\usart1.c                            0x00000000   Number         0  usart1.o ABSOLUTE
    RESET                                    0x08000000   Section      304  startup_stm32f10x_hd.o(RESET)
    .ARM.Collect$$$$00000000                 0x08000130   Section        0  entry.o(.ARM.Collect$$$$00000000)
    .ARM.Collect$$$$00000001                 0x08000130   Section        4  entry2.o(.ARM.Collect$$$$00000001)
    .ARM.Collect$$$$00000004                 0x08000134   Section        4  entry5.o(.ARM.Collect$$$$00000004)
    .ARM.Collect$$$$00000008                 0x08000138   Section        0  entry7b.o(.ARM.Collect$$$$00000008)
    .ARM.Collect$$$$0000000A                 0x08000138   Section        0  entry8b.o(.ARM.Collect$$$$0000000A)
    .ARM.Collect$$$$0000000B                 0x08000138   Section        8  entry9a.o(.ARM.Collect$$$$0000000B)
    .ARM.Collect$$$$0000000D                 0x08000140   Section        0  entry10a.o(.ARM.Collect$$$$0000000D)
    .ARM.Collect$$$$0000000F                 0x08000140   Section        0  entry11a.o(.ARM.Collect$$$$0000000F)
    .ARM.Collect$$$$00002712                 0x08000140   Section        4  entry2.o(.ARM.Collect$$$$00002712)
    __lit__00000000                          0x08000140   Data           4  entry2.o(.ARM.Collect$$$$00002712)
    .text                                    0x08000144   Section       36  startup_stm32f10x_hd.o(.text)
    .text                                    0x08000168   Section        0  main.o(.text)
    .text                                    0x08000214   Section        0  stm32f10x_it.o(.text)
    .text                                    0x08000224   Section        0  usart1.o(.text)
    itoa                                     0x080003c3   Thumb Code   104  usart1.o(.text)
    .text                                    0x08000540   Section        0  misc.o(.text)
    .text                                    0x08000614   Section        0  delay v2.0.o(.text)
    .text                                    0x080006e4   Section        0  pincfg.o(.text)
    .text                                    0x08000800   Section        0  adc.o(.text)
    .text                                    0x08000a14   Section        0  dac v2.0.o(.text)
    .text                                    0x08000b48   Section        0  exti.o(.text)
    NVIC_Config                              0x08000b49   Thumb Code    58  exti.o(.text)
    .text                                    0x08000cec   Section        0  indkey.o(.text)
    .text                                    0x08000df8   Section        0  iwdg.o(.text)
    .text                                    0x08000e2c   Section        0  oscilloscope.o(.text)
    .text                                    0x0800144c   Section        0  timer.o(.text)
    .text                                    0x08001538   Section        0  tft_api.o(.text)
    .text                                    0x08001d68   Section        0  tft_drive.o(.text)
    .text                                    0x08002048   Section        0  tsc2046.o(.text)
    .text                                    0x08002374   Section        0  stm32f10x_gpio.o(.text)
    .text                                    0x08002634   Section        0  stm32f10x_rcc.o(.text)
    .text                                    0x08002948   Section        0  stm32f10x_usart.o(.text)
    .text                                    0x08002cfc   Section        0  stm32f10x_fsmc.o(.text)
    .text                                    0x08003214   Section        0  stm32f10x_adc.o(.text)
    .text                                    0x080035dc   Section        0  stm32f10x_bkp.o(.text)
    .text                                    0x08003688   Section        0  stm32f10x_dac.o(.text)
    .text                                    0x080037d4   Section        0  stm32f10x_dma.o(.text)
    .text                                    0x080039ec   Section        0  stm32f10x_exti.o(.text)
    .text                                    0x08003af0   Section        0  stm32f10x_iwdg.o(.text)
    .text                                    0x08003b2c   Section        0  stm32f10x_pwr.o(.text)
    .text                                    0x08003bdc   Section        0  stm32f10x_rtc.o(.text)
    .text                                    0x08003cf8   Section        0  stm32f10x_tim.o(.text)
    TI4_Config                               0x08004171   Thumb Code   114  stm32f10x_tim.o(.text)
    TI3_Config                               0x080041f3   Thumb Code   110  stm32f10x_tim.o(.text)
    TI2_Config                               0x08004279   Thumb Code   124  stm32f10x_tim.o(.text)
    TI1_Config                               0x08004305   Thumb Code   106  stm32f10x_tim.o(.text)
    .text                                    0x08004988   Section        0  stm32f10x_spi.o(.text)
    .text                                    0x08004c64   Section        0  system_stm32f10x.o(.text)
    SetSysClockTo72                          0x08004c65   Thumb Code   170  system_stm32f10x.o(.text)
    SetSysClock                              0x08004d0f   Thumb Code     2  system_stm32f10x.o(.text)
    .text                                    0x08004de0   Section        0  app.o(.text)
    .text                                    0x08004fa0   Section        0  task_gui.o(.text)
    .text                                    0x08006210   Section        0  task_main.o(.text)
    .text                                    0x08006850   Section        0  task_rtc.o(.text)
    .text                                    0x08006cd0   Section        0  os_core.o(.text)
    OS_InitTaskStat                          0x08006d5f   Thumb Code    56  os_core.o(.text)
    OS_InitTaskIdle                          0x08006dad   Thumb Code    56  os_core.o(.text)
    OS_InitEventList                         0x08006df9   Thumb Code    70  os_core.o(.text)
    OS_InitTCBList                           0x08006e3f   Thumb Code    94  os_core.o(.text)
    OS_InitRdyList                           0x08006e9d   Thumb Code    32  os_core.o(.text)
    OS_InitMisc                              0x08006ebd   Thumb Code    26  os_core.o(.text)
    OS_SchedNew                              0x08006f11   Thumb Code    24  os_core.o(.text)
    .text                                    0x080073cc   Section        0  os_mbox.o(.text)
    .text                                    0x0800773c   Section        0  os_mutex.o(.text)
    OSMutex_RdyAtPrio                        0x0800783b   Thumb Code   102  os_mutex.o(.text)
    .text                                    0x08007c90   Section        0  os_sem.o(.text)
    .text                                    0x08007fb4   Section        0  os_task.o(.text)
    .text                                    0x080086f0   Section        0  os_time.o(.text)
    .text                                    0x08008884   Section        0  os_cpu_c.o(.text)
    .text                                    0x0800890c   Section      164  os_cpu_a.o(.text)
    .text                                    0x080089b0   Section        0  gui_x_ucos.o(.text)
    CheckInit                                0x08008a2b   Thumb Code    16  gui_x_ucos.o(.text)
    .text                                    0x08008a84   Section        0  lcd_gui_interface.o(.text)
    DrawBitLine2BPP                          0x08008da5   Thumb Code   502  lcd_gui_interface.o(.text)
    DrawBitLine4BPP                          0x08008f9b   Thumb Code   284  lcd_gui_interface.o(.text)
    .text                                    0x080092e8   Section        0  gui2dlib.o(.text)
    Abs                                      0x080096e9   Thumb Code    16  gui2dlib.o(.text)
    _atan2                                   0x080096f9   Thumb Code   132  gui2dlib.o(.text)
    _SetLineColor                            0x0800977d   Thumb Code   120  gui2dlib.o(.text)
    _DrawLineEnd                             0x080097f5   Thumb Code    12  gui2dlib.o(.text)
    .text                                    0x08009808   Section        0  gui_dispstring.o(.text)
    .text                                    0x08009900   Section        0  gui_dispstringat.o(.text)
    .text                                    0x08009924   Section        0  gui_dispstringhcenter.o(.text)
    .text                                    0x08009958   Section        0  gui_drawgraph.o(.text)
    _DrawGraph                               0x0800997d   Thumb Code   156  gui_drawgraph.o(.text)
    .text                                    0x08009a1c   Section        0  gui_drawhline.o(.text)
    .text                                    0x08009a3a   Section        0  gui_drawvline.o(.text)
    .text                                    0x08009a58   Section        0  gui_setcolor.o(.text)
    .text                                    0x08009a84   Section        0  gui_setfont.o(.text)
    .text                                    0x08009aa0   Section        0  gui_settextmode.o(.text)
    .text                                    0x08009abc   Section        0  guicore.o(.text)
    .text                                    0x08009b70   Section        0  guival.o(.text)
    .text                                    0x08009c2c   Section        0  guivalf.o(.text)
    _DispFloatFix                            0x08009c2d   Thumb Code    82  guivalf.o(.text)
    .text                                    0x08009d38   Section        0  guidev_banding.o(.text)
    _Min                                     0x08009e21   Thumb Code    12  guidev_banding.o(.text)
    .text                                    0x08009e2c   Section        0  gui_adddecmin.o(.text)
    .text                                    0x08009e48   Section        0  gui_adddecshift.o(.text)
    .text                                    0x08009f04   Section        0  gui_fillpolygon.o(.text)
    _Add                                     0x08009f05   Thumb Code    46  gui_fillpolygon.o(.text)
    .text                                    0x0800a104   Section        0  gui_goto.o(.text)
    .text                                    0x0800a150   Section        0  gui_settextalign.o(.text)
    .text                                    0x0800a16c   Section        0  gui_uc.o(.text)
    .text                                    0x0800a240   Section        0  gui_uc_encodenone.o(.text)
    _GetCharCode                             0x0800a241   Thumb Code     4  gui_uc_encodenone.o(.text)
    _GetCharSize                             0x0800a245   Thumb Code     4  gui_uc_encodenone.o(.text)
    _CalcSizeOfChar                          0x0800a249   Thumb Code     4  gui_uc_encodenone.o(.text)
    _Encode                                  0x0800a24d   Thumb Code     6  gui_uc_encodenone.o(.text)
    .text                                    0x0800a270   Section        0  guichar.o(.text)
    .text                                    0x0800a330   Section        0  guicharline.o(.text)
    _DispLine                                0x0800a331   Thumb Code    70  guicharline.o(.text)
    .text                                    0x0800a408   Section        0  guicharm.o(.text)
    .text                                    0x0800a560   Section        0  guicirc.o(.text)
    Draw8Point                               0x0800a561   Thumb Code   108  guicirc.o(.text)
    .text                                    0x0800a854   Section        0  guitask.o(.text)
    .text                                    0x0800a93c   Section        0  lcd.o(.text)
    _GetColorIndex                           0x0800ac8d   Thumb Code    18  lcd.o(.text)
    .text                                    0x0800aca8   Section        0  lcd_drawvline.o(.text)
    .text                                    0x0800ace4   Section        0  lcd_l0_generic.o(.text)
    .text                                    0x0800ad04   Section        0  lcdinfo0.o(.text)
    .text                                    0x0800ad34   Section        0  guidev.o(.text)
    .text                                    0x0800b0b0   Section        0  guidev_clear.o(.text)
    .text                                    0x0800b0e8   Section        0  guidev_getysize.o(.text)
    .text                                    0x0800b114   Section        0  guidev_reduceysize.o(.text)
    .text                                    0x0800b148   Section        0  guidev_setorg.o(.text)
    .text                                    0x0800b1a0   Section        0  lcdpm565.o(.text)
    .text                                    0x0800b1bc   Section        0  gui_alloc_alloczero.o(.text)
    .text                                    0x0800b1e2   Section        0  gui_rectsintersect.o(.text)
    .text                                    0x0800b21a   Section        0  gui_selectlcd.o(.text)
    .text                                    0x0800b230   Section        0  guialloc.o(.text)
    _CreateHole                              0x0800b231   Thumb Code   124  guialloc.o(.text)
    _Alloc                                   0x0800b2d5   Thumb Code   210  guialloc.o(.text)
    _Free                                    0x0800b493   Thumb Code    78  guialloc.o(.text)
    _FindHole                                0x0800b4e1   Thumb Code    86  guialloc.o(.text)
    _CheckInit                               0x0800b537   Thumb Code    12  guialloc.o(.text)
    .text                                    0x0800b554   Section        0  lcdcolor.o(.text)
    .text                                    0x0800b594   Section        0  lcdpm565_index2color.o(.text)
    .text                                    0x0800b5c8   Section        0  guidev_16.o(.text)
    _DrawBitLine1BPP                         0x0800b5c9   Thumb Code   248  guidev_16.o(.text)
    _DrawBitLine4BPP                         0x0800b6c1   Thumb Code   338  guidev_16.o(.text)
    _DrawBitmap                              0x0800b813   Thumb Code   552  guidev_16.o(.text)
    _FillRect                                0x0800ba3b   Thumb Code   130  guidev_16.o(.text)
    _DrawHLine                               0x0800babd   Thumb Code     4  guidev_16.o(.text)
    _DrawVLine                               0x0800bac1   Thumb Code   160  guidev_16.o(.text)
    _SetPixelIndex                           0x0800bb61   Thumb Code    72  guidev_16.o(.text)
    _XorPixel                                0x0800bba9   Thumb Code    80  guidev_16.o(.text)
    _GetPixelIndex                           0x0800bbf9   Thumb Code    10  guidev_16.o(.text)
    _XY2PTR                                  0x0800bc03   Thumb Code    48  guidev_16.o(.text)
    _DrawBitLine2BPP                         0x0800bc33   Thumb Code   212  guidev_16.o(.text)
    .text                                    0x0800bd0c   Section        0  guidev_usage.o(.text)
    .text                                    0x0800bd78   Section        0  guidev_usagebm.o(.text)
    GUI_USAGE_BM_AddPixel                    0x0800bd79   Thumb Code    44  guidev_usagebm.o(.text)
    GUI_USAGE_BM_AddHLine                    0x0800bda5   Thumb Code   108  guidev_usagebm.o(.text)
    GUI_USAGE_BM_Clear                       0x0800be11   Thumb Code    14  guidev_usagebm.o(.text)
    GUI_USAGE_BM_GetNextDirty                0x0800be1f   Thumb Code   188  guidev_usagebm.o(.text)
    _GUI_USAGE_BM_Delete                     0x0800bedb   Thumb Code     4  guidev_usagebm.o(.text)
    .text                                    0x0800bf30   Section        0  gui__memset.o(.text)
    .text                                    0x0800bf7a   Section        0  gui__memset16.o(.text)
    .text                                    0x0800bfb4   Section        0  lcd_selectlcd.o(.text)
    .text                                    0x0800bfd0   Section        0  lcd_updatecolorindices.o(.text)
    .text                                    0x0800bff0   Section        0  memmovea.o(.text)
    .text                                    0x0800c030   Section        0  memseta.o(.text)
    .text                                    0x0800c054   Section        0  atoi.o(.text)
    .text                                    0x0800c06e   Section        0  fadd.o(.text)
    .text                                    0x0800c11e   Section        0  fmul.o(.text)
    .text                                    0x0800c182   Section        0  fdiv.o(.text)
    .text                                    0x0800c1fe   Section        0  fscalb.o(.text)
    .text                                    0x0800c216   Section        0  dadd.o(.text)
    .text                                    0x0800c364   Section        0  dmul.o(.text)
    .text                                    0x0800c448   Section        0  ddiv.o(.text)
    .text                                    0x0800c526   Section        0  dscalb.o(.text)
    .text                                    0x0800c554   Section        0  ffltui.o(.text)
    .text                                    0x0800c55e   Section        0  dflti.o(.text)
    .text                                    0x0800c580   Section        0  dfltui.o(.text)
    .text                                    0x0800c59a   Section        0  ffixi.o(.text)
    .text                                    0x0800c5cc   Section        0  ffixui.o(.text)
    .text                                    0x0800c5f4   Section        0  dfixui.o(.text)
    .text                                    0x0800c626   Section        0  f2d.o(.text)
    .text                                    0x0800c64c   Section        0  d2f.o(.text)
    .text                                    0x0800c684   Section       20  cfcmple.o(.text)
    .text                                    0x0800c698   Section       20  cfrcmple.o(.text)
    .text                                    0x0800c6ac   Section        0  uidiv.o(.text)
    .text                                    0x0800c6d8   Section        0  uldiv.o(.text)
    .text                                    0x0800c73a   Section        0  llshl.o(.text)
    .text                                    0x0800c758   Section        0  llushr.o(.text)
    .text                                    0x0800c778   Section        0  llsshr.o(.text)
    .text                                    0x0800c79c   Section        0  strtol.o(.text)
    .text                                    0x0800c80c   Section        0  fepilogue.o(.text)
    .text                                    0x0800c80c   Section        0  iusefp.o(.text)
    .text                                    0x0800c87a   Section        0  depilogue.o(.text)
    .text                                    0x0800c930   Section        0  dfixul.o(.text)
    .text                                    0x0800c960   Section       40  cdrcmple.o(.text)
    .text                                    0x0800c988   Section       36  init.o(.text)
    .text                                    0x0800c9ac   Section        0  ctype_o.o(.text)
    .text                                    0x0800c9b4   Section        0  _strtoul.o(.text)
    .text                                    0x0800ca52   Section        0  dfixi.o(.text)
    .text                                    0x0800ca90   Section        0  _chval.o(.text)
    i.__0printf                              0x0800caac   Section        0  printfa.o(i.__0printf)
    i.__0sprintf                             0x0800cacc   Section        0  printfa.o(i.__0sprintf)
    i.__ARM_fpclassify                       0x0800caf4   Section        0  fpclassify.o(i.__ARM_fpclassify)
    i.__aeabi_errno_addr                     0x0800cb1c   Section        0  errno.o(i.__aeabi_errno_addr)
    i.__ieee754_rem_pio2                     0x0800cb24   Section        0  rred.o(i.__ieee754_rem_pio2)
    i.__kernel_cos                           0x0800ceac   Section        0  cos_i.o(i.__kernel_cos)
    i.__kernel_poly                          0x0800cfa8   Section        0  poly.o(i.__kernel_poly)
    i.__kernel_sin                           0x0800d054   Section        0  sin_i.o(i.__kernel_sin)
    i.__mathlib_dbl_underflow                0x0800d140   Section        0  dunder.o(i.__mathlib_dbl_underflow)
    i.__scatterload_copy                     0x0800d150   Section       14  handlers.o(i.__scatterload_copy)
    i.__scatterload_null                     0x0800d15e   Section        2  handlers.o(i.__scatterload_null)
    i.__scatterload_zeroinit                 0x0800d160   Section       14  handlers.o(i.__scatterload_zeroinit)
    i.__set_errno                            0x0800d170   Section        0  errno.o(i.__set_errno)
    i._fp_digits                             0x0800d17c   Section        0  printfa.o(i._fp_digits)
    _fp_digits                               0x0800d17d   Thumb Code   334  printfa.o(i._fp_digits)
    i._printf_core                           0x0800d2e0   Section        0  printfa.o(i._printf_core)
    _printf_core                             0x0800d2e1   Thumb Code  1744  printfa.o(i._printf_core)
    i._printf_post_padding                   0x0800d9bc   Section        0  printfa.o(i._printf_post_padding)
    _printf_post_padding                     0x0800d9bd   Thumb Code    36  printfa.o(i._printf_post_padding)
    i._printf_pre_padding                    0x0800d9e0   Section        0  printfa.o(i._printf_pre_padding)
    _printf_pre_padding                      0x0800d9e1   Thumb Code    46  printfa.o(i._printf_pre_padding)
    i._sputc                                 0x0800da0e   Section        0  printfa.o(i._sputc)
    _sputc                                   0x0800da0f   Thumb Code    10  printfa.o(i._sputc)
    i.floor                                  0x0800da18   Section        0  floor.o(i.floor)
    i.sin                                    0x0800daf4   Section        0  sin.o(i.sin)
    .constdata                               0x0800dba4   Section       64  dac v2.0.o(.constdata)
    .constdata                               0x0800dbe4   Section       64  dac v2.0.o(.constdata)
    .constdata                               0x0800dc24   Section       64  dac v2.0.o(.constdata)
    .constdata                               0x0800dc64   Section     1536  tft_api.o(.constdata)
    .constdata                               0x0800e264   Section        8  task_gui.o(.constdata)
    .constdata                               0x0800e26c   Section       24  task_rtc.o(.constdata)
    .constdata                               0x0800e284   Section      256  os_core.o(.constdata)
    .constdata                               0x0800e384   Section       68  gui2dlib.o(.constdata)
    aSin                                     0x0800e384   Data          34  gui2dlib.o(.constdata)
    .constdata                               0x0800e3c8   Section     1304  f6x8.o(.constdata)
    .constdata                               0x0800e8e0   Section      448  f6x8.o(.constdata)
    .constdata                               0x0800eaa0   Section        8  f6x8.o(.constdata)
    .constdata                               0x0800eaa8   Section       20  f6x8.o(.constdata)
    .constdata                               0x0800eabc   Section       32  f6x8.o(.constdata)
    .constdata                               0x0800eadc   Section     2608  f8x16.o(.constdata)
    .constdata                               0x0800f50c   Section      448  f8x16.o(.constdata)
    .constdata                               0x0800f6cc   Section        8  f8x16.o(.constdata)
    .constdata                               0x0800f6d4   Section       20  f8x16.o(.constdata)
    .constdata                               0x0800f6e8   Section       32  f8x16.o(.constdata)
    .constdata                               0x0800f708   Section       40  gui_adddecshift.o(.constdata)
    .constdata                               0x0800f730   Section       16  gui_uc_encodenone.o(.constdata)
    .constdata                               0x0800f740   Section       64  lcd_api.o(.constdata)
    .constdata                               0x0800f780   Section       32  guidev_16.o(.constdata)
    aID                                      0x0800f780   Data          32  guidev_16.o(.constdata)
    .constdata                               0x0800f7a0   Section       64  guidev_16.o(.constdata)
    .constdata                               0x0800f7e0   Section       24  guidev_usagebm.o(.constdata)
    API                                      0x0800f7e0   Data          24  guidev_usagebm.o(.constdata)
    .constdata                               0x0800f7f8   Section      256  lcd_mirror.o(.constdata)
    .constdata                               0x0800f8f8   Section       48  cos_i.o(.constdata)
    C                                        0x0800f8f8   Data          48  cos_i.o(.constdata)
    .constdata                               0x0800f928   Section      200  rred.o(.constdata)
    pio2s                                    0x0800f928   Data          48  rred.o(.constdata)
    twooverpi                                0x0800f958   Data         152  rred.o(.constdata)
    .constdata                               0x0800f9f0   Section       40  sin_i.o(.constdata)
    S                                        0x0800f9f0   Data          40  sin_i.o(.constdata)
    .constdata                               0x0800fa18   Section      129  ctype_o.o(.constdata)
    .constdata                               0x0800fa9c   Section        4  ctype_o.o(.constdata)
    table                                    0x0800fa9c   Data           4  ctype_o.o(.constdata)
    .data                                    0x20000000   Section       12  main.o(.data)
    .data                                    0x2000000c   Section        8  delay v2.0.o(.data)
    fac_us                                   0x2000000c   Data           1  delay v2.0.o(.data)
    fac_ms                                   0x2000000e   Data           2  delay v2.0.o(.data)
    .data                                    0x20000014   Section       12  exti.o(.data)
    .data                                    0x20000020   Section        4  oscilloscope.o(.data)
    .data                                    0x20000024   Section       36  tft_drive.o(.data)
    .data                                    0x20000048   Section       20  stm32f10x_rcc.o(.data)
    ADCPrescTable                            0x20000048   Data           4  stm32f10x_rcc.o(.data)
    APBAHBPrescTable                         0x2000004c   Data          16  stm32f10x_rcc.o(.data)
    .data                                    0x2000005c   Section       20  system_stm32f10x.o(.data)
    .data                                    0x20000070   Section       12  task_gui.o(.data)
    .data                                    0x2000007c   Section        2  task_gui.o(.data)
    .data                                    0x2000007e   Section        2  task_gui.o(.data)
    .data                                    0x20000080   Section        2  task_rtc.o(.data)
    daycnt                                   0x20000080   Data           2  task_rtc.o(.data)
    .data                                    0x20000084   Section       60  os_core.o(.data)
    .data                                    0x200000c0   Section       20  gui_x_ucos.o(.data)
    KeyIsInited                              0x200000c0   Data           1  gui_x_ucos.o(.data)
    DispSem                                  0x200000c4   Data           4  gui_x_ucos.o(.data)
    EventMbox                                0x200000c8   Data           4  gui_x_ucos.o(.data)
    KeySem                                   0x200000cc   Data           4  gui_x_ucos.o(.data)
    KeyPressed                               0x200000d0   Data           4  gui_x_ucos.o(.data)
    .data                                    0x200000d4   Section        1  guicore.o(.data)
    .data                                    0x200000d8   Section        4  guicore.o(.data)
    .data                                    0x200000dc   Section        4  guicore.o(.data)
    .data                                    0x200000e0   Section        4  gui_fillpolygon.o(.data)
    GL_FP_Cnt                                0x200000e0   Data           4  gui_fillpolygon.o(.data)
    .data                                    0x200000e4   Section       12  guitask.o(.data)
    _CurrentTaskNo                           0x200000e4   Data           4  guitask.o(.data)
    _EntranceCnt                             0x200000e8   Data           4  guitask.o(.data)
    _TaskIDLock                              0x200000ec   Data           4  guitask.o(.data)
    .data                                    0x200000f0   Section        4  lcd_api.o(.data)
    .data                                    0x200000f4   Section        1  guialloc.o(.data)
    IsInitialized                            0x200000f4   Data           1  guialloc.o(.data)
    .data                                    0x200000f8   Section        4  stdout.o(.data)
    .data                                    0x200000fc   Section        4  errno.o(.data)
    _errno                                   0x200000fc   Data           4  errno.o(.data)
    .bss                                     0x20000100   Section      256  main.o(.bss)
    .bss                                     0x20000200   Section       16  usart1.o(.bss)
    .bss                                     0x20000210   Section      800  adc.o(.bss)
    .bss                                     0x20000530   Section       64  dac v2.0.o(.bss)
    .bss                                     0x20000570   Section       64  tft_api.o(.bss)
    .bss                                     0x200005b0   Section    17408  app.o(.bss)
    .bss                                     0x200049b0   Section      800  task_gui.o(.bss)
    .bss                                     0x20004cd0   Section       68  task_main.o(.bss)
    .bss                                     0x20004d14   Section       10  task_rtc.o(.bss)
    .bss                                     0x20004d20   Section     2292  os_core.o(.bss)
    .bss                                     0x20005614   Section       72  guicore.o(.bss)
    .bss                                     0x2000565c   Section       24  gui_fillpolygon.o(.bss)
    _aX                                      0x2000565c   Data          24  gui_fillpolygon.o(.bss)
    .bss                                     0x20005674   Section      304  guitask.o(.bss)
    _Save                                    0x20005674   Data         304  guitask.o(.bss)
    .bss                                     0x200057a4   Section     5968  guialloc.o(.bss)
    aBlock                                   0x20006b2c   Data         948  guialloc.o(.bss)
    .bss                                     0x20006ef4   Section      512  lcdcolor.o(.bss)
    STACK                                    0x200070f8   Section     1024  startup_stm32f10x_hd.o(STACK)

    Global Symbols

    Symbol Name                              Value     Ov Type        Size  Object(Section)

    BuildAttributes$$THM_ISAv4$P$D$K$B$S$PE$A:L22UL41UL21$X:L11$S22US41US21$IEEE1$IW$USESV6$~STKCKD$USESV7$~SHL$OTIME$ROPI$IEEEX$EBA8$MICROLIB$REQ8$PRES8$EABIv2 0x00000000   Number         0  anon$$obj.o ABSOLUTE
    __ARM_use_no_argv                        0x00000000   Number         0  main.o ABSOLUTE
    _printf_a                                0x00000000   Number         0  stubs.o ABSOLUTE
    _printf_c                                0x00000000   Number         0  stubs.o ABSOLUTE
    _printf_charcount                        0x00000000   Number         0  stubs.o ABSOLUTE
    _printf_d                                0x00000000   Number         0  stubs.o ABSOLUTE
    _printf_e                                0x00000000   Number         0  stubs.o ABSOLUTE
    _printf_f                                0x00000000   Number         0  stubs.o ABSOLUTE
    _printf_flags                            0x00000000   Number         0  stubs.o ABSOLUTE
    _printf_fp_dec                           0x00000000   Number         0  stubs.o ABSOLUTE
    _printf_fp_hex                           0x00000000   Number         0  stubs.o ABSOLUTE
    _printf_g                                0x00000000   Number         0  stubs.o ABSOLUTE
    _printf_i                                0x00000000   Number         0  stubs.o ABSOLUTE
    _printf_int_dec                          0x00000000   Number         0  stubs.o ABSOLUTE
    _printf_l                                0x00000000   Number         0  stubs.o ABSOLUTE
    _printf_lc                               0x00000000   Number         0  stubs.o ABSOLUTE
    _printf_ll                               0x00000000   Number         0  stubs.o ABSOLUTE
    _printf_lld                              0x00000000   Number         0  stubs.o ABSOLUTE
    _printf_lli                              0x00000000   Number         0  stubs.o ABSOLUTE
    _printf_llo                              0x00000000   Number         0  stubs.o ABSOLUTE
    _printf_llu                              0x00000000   Number         0  stubs.o ABSOLUTE
    _printf_llx                              0x00000000   Number         0  stubs.o ABSOLUTE
    _printf_longlong_dec                     0x00000000   Number         0  stubs.o ABSOLUTE
    _printf_longlong_hex                     0x00000000   Number         0  stubs.o ABSOLUTE
    _printf_longlong_oct                     0x00000000   Number         0  stubs.o ABSOLUTE
    _printf_ls                               0x00000000   Number         0  stubs.o ABSOLUTE
    _printf_mbtowc                           0x00000000   Number         0  stubs.o ABSOLUTE
    _printf_n                                0x00000000   Number         0  stubs.o ABSOLUTE
    _printf_o                                0x00000000   Number         0  stubs.o ABSOLUTE
    _printf_p                                0x00000000   Number         0  stubs.o ABSOLUTE
    _printf_percent                          0x00000000   Number         0  stubs.o ABSOLUTE
    _printf_pre_padding                      0x00000000   Number         0  stubs.o ABSOLUTE
    _printf_return_value                     0x00000000   Number         0  stubs.o ABSOLUTE
    _printf_s                                0x00000000   Number         0  stubs.o ABSOLUTE
    _printf_sizespec                         0x00000000   Number         0  stubs.o ABSOLUTE
    _printf_str                              0x00000000   Number         0  stubs.o ABSOLUTE
    _printf_truncate_signed                  0x00000000   Number         0  stubs.o ABSOLUTE
    _printf_truncate_unsigned                0x00000000   Number         0  stubs.o ABSOLUTE
    _printf_u                                0x00000000   Number         0  stubs.o ABSOLUTE
    _printf_wc                               0x00000000   Number         0  stubs.o ABSOLUTE
    _printf_wctomb                           0x00000000   Number         0  stubs.o ABSOLUTE
    _printf_widthprec                        0x00000000   Number         0  stubs.o ABSOLUTE
    _printf_x                                0x00000000   Number         0  stubs.o ABSOLUTE
    __cpp_initialize__aeabi_                  - Undefined Weak Reference
    __cxa_finalize                            - Undefined Weak Reference
    __decompress                              - Undefined Weak Reference
    _clock_init                               - Undefined Weak Reference
    _microlib_exit                            - Undefined Weak Reference
    __Vectors_Size                           0x00000130   Number         0  startup_stm32f10x_hd.o ABSOLUTE
    __Vectors                                0x08000000   Data           4  startup_stm32f10x_hd.o(RESET)
    __Vectors_End                            0x08000130   Data           0  startup_stm32f10x_hd.o(RESET)
    __main                                   0x08000131   Thumb Code     0  entry.o(.ARM.Collect$$$$00000000)
    _main_stk                                0x08000131   Thumb Code     0  entry2.o(.ARM.Collect$$$$00000001)
    _main_scatterload                        0x08000135   Thumb Code     0  entry5.o(.ARM.Collect$$$$00000004)
    __main_after_scatterload                 0x08000139   Thumb Code     0  entry5.o(.ARM.Collect$$$$00000004)
    _main_clock                              0x08000139   Thumb Code     0  entry7b.o(.ARM.Collect$$$$00000008)
    _main_cpp_init                           0x08000139   Thumb Code     0  entry8b.o(.ARM.Collect$$$$0000000A)
    _main_init                               0x08000139   Thumb Code     0  entry9a.o(.ARM.Collect$$$$0000000B)
    __rt_final_cpp                           0x08000141   Thumb Code     0  entry10a.o(.ARM.Collect$$$$0000000D)
    __rt_final_exit                          0x08000141   Thumb Code     0  entry11a.o(.ARM.Collect$$$$0000000F)
    Reset_Handler                            0x08000145   Thumb Code     8  startup_stm32f10x_hd.o(.text)
    ADC1_2_IRQHandler                        0x0800015f   Thumb Code     0  startup_stm32f10x_hd.o(.text)
    ADC3_IRQHandler                          0x0800015f   Thumb Code     0  startup_stm32f10x_hd.o(.text)
    CAN1_RX1_IRQHandler                      0x0800015f   Thumb Code     0  startup_stm32f10x_hd.o(.text)
    CAN1_SCE_IRQHandler                      0x0800015f   Thumb Code     0  startup_stm32f10x_hd.o(.text)
    DMA1_Channel2_IRQHandler                 0x0800015f   Thumb Code     0  startup_stm32f10x_hd.o(.text)
    DMA1_Channel3_IRQHandler                 0x0800015f   Thumb Code     0  startup_stm32f10x_hd.o(.text)
    DMA1_Channel4_IRQHandler                 0x0800015f   Thumb Code     0  startup_stm32f10x_hd.o(.text)
    DMA1_Channel6_IRQHandler                 0x0800015f   Thumb Code     0  startup_stm32f10x_hd.o(.text)
    DMA1_Channel7_IRQHandler                 0x0800015f   Thumb Code     0  startup_stm32f10x_hd.o(.text)
    DMA2_Channel1_IRQHandler                 0x0800015f   Thumb Code     0  startup_stm32f10x_hd.o(.text)
    DMA2_Channel2_IRQHandler                 0x0800015f   Thumb Code     0  startup_stm32f10x_hd.o(.text)
    DMA2_Channel3_IRQHandler                 0x0800015f   Thumb Code     0  startup_stm32f10x_hd.o(.text)
    DMA2_Channel4_5_IRQHandler               0x0800015f   Thumb Code     0  startup_stm32f10x_hd.o(.text)
    EXTI2_IRQHandler                         0x0800015f   Thumb Code     0  startup_stm32f10x_hd.o(.text)
    EXTI3_IRQHandler                         0x0800015f   Thumb Code     0  startup_stm32f10x_hd.o(.text)
    EXTI4_IRQHandler                         0x0800015f   Thumb Code     0  startup_stm32f10x_hd.o(.text)
    EXTI9_5_IRQHandler                       0x0800015f   Thumb Code     0  startup_stm32f10x_hd.o(.text)
    FLASH_IRQHandler                         0x0800015f   Thumb Code     0  startup_stm32f10x_hd.o(.text)
    FSMC_IRQHandler                          0x0800015f   Thumb Code     0  startup_stm32f10x_hd.o(.text)
    I2C1_ER_IRQHandler                       0x0800015f   Thumb Code     0  startup_stm32f10x_hd.o(.text)
    I2C1_EV_IRQHandler                       0x0800015f   Thumb Code     0  startup_stm32f10x_hd.o(.text)
    I2C2_ER_IRQHandler                       0x0800015f   Thumb Code     0  startup_stm32f10x_hd.o(.text)
    I2C2_EV_IRQHandler                       0x0800015f   Thumb Code     0  startup_stm32f10x_hd.o(.text)
    PVD_IRQHandler                           0x0800015f   Thumb Code     0  startup_stm32f10x_hd.o(.text)
    RCC_IRQHandler                           0x0800015f   Thumb Code     0  startup_stm32f10x_hd.o(.text)
    RTCAlarm_IRQHandler                      0x0800015f   Thumb Code     0  startup_stm32f10x_hd.o(.text)
    SDIO_IRQHandler                          0x0800015f   Thumb Code     0  startup_stm32f10x_hd.o(.text)
    SPI1_IRQHandler                          0x0800015f   Thumb Code     0  startup_stm32f10x_hd.o(.text)
    SPI2_IRQHandler                          0x0800015f   Thumb Code     0  startup_stm32f10x_hd.o(.text)
    SPI3_IRQHandler                          0x0800015f   Thumb Code     0  startup_stm32f10x_hd.o(.text)
    TAMPER_IRQHandler                        0x0800015f   Thumb Code     0  startup_stm32f10x_hd.o(.text)
    TIM1_BRK_IRQHandler                      0x0800015f   Thumb Code     0  startup_stm32f10x_hd.o(.text)
    TIM1_CC_IRQHandler                       0x0800015f   Thumb Code     0  startup_stm32f10x_hd.o(.text)
    TIM1_TRG_COM_IRQHandler                  0x0800015f   Thumb Code     0  startup_stm32f10x_hd.o(.text)
    TIM1_UP_IRQHandler                       0x0800015f   Thumb Code     0  startup_stm32f10x_hd.o(.text)
    TIM2_IRQHandler                          0x0800015f   Thumb Code     0  startup_stm32f10x_hd.o(.text)
    TIM3_IRQHandler                          0x0800015f   Thumb Code     0  startup_stm32f10x_hd.o(.text)
    TIM4_IRQHandler                          0x0800015f   Thumb Code     0  startup_stm32f10x_hd.o(.text)
    TIM6_IRQHandler                          0x0800015f   Thumb Code     0  startup_stm32f10x_hd.o(.text)
    TIM7_IRQHandler                          0x0800015f   Thumb Code     0  startup_stm32f10x_hd.o(.text)
    TIM8_BRK_IRQHandler                      0x0800015f   Thumb Code     0  startup_stm32f10x_hd.o(.text)
    TIM8_CC_IRQHandler                       0x0800015f   Thumb Code     0  startup_stm32f10x_hd.o(.text)
    TIM8_TRG_COM_IRQHandler                  0x0800015f   Thumb Code     0  startup_stm32f10x_hd.o(.text)
    TIM8_UP_IRQHandler                       0x0800015f   Thumb Code     0  startup_stm32f10x_hd.o(.text)
    UART4_IRQHandler                         0x0800015f   Thumb Code     0  startup_stm32f10x_hd.o(.text)
    UART5_IRQHandler                         0x0800015f   Thumb Code     0  startup_stm32f10x_hd.o(.text)
    USART2_IRQHandler                        0x0800015f   Thumb Code     0  startup_stm32f10x_hd.o(.text)
    USART3_IRQHandler                        0x0800015f   Thumb Code     0  startup_stm32f10x_hd.o(.text)
    USBWakeUp_IRQHandler                     0x0800015f   Thumb Code     0  startup_stm32f10x_hd.o(.text)
    USB_HP_CAN1_TX_IRQHandler                0x0800015f   Thumb Code     0  startup_stm32f10x_hd.o(.text)
    USB_LP_CAN1_RX0_IRQHandler               0x0800015f   Thumb Code     0  startup_stm32f10x_hd.o(.text)
    WWDG_IRQHandler                          0x0800015f   Thumb Code     0  startup_stm32f10x_hd.o(.text)
    main                                     0x08000169   Thumb Code    62  main.o(.text)
    BSP_Init                                 0x080001a7   Thumb Code    94  main.o(.text)
    NMI_Handler                              0x08000215   Thumb Code     2  stm32f10x_it.o(.text)
    HardFault_Handler                        0x08000217   Thumb Code     2  stm32f10x_it.o(.text)
    MemManage_Handler                        0x08000219   Thumb Code     2  stm32f10x_it.o(.text)
    BusFault_Handler                         0x0800021b   Thumb Code     2  stm32f10x_it.o(.text)
    UsageFault_Handler                       0x0800021d   Thumb Code     2  stm32f10x_it.o(.text)
    SVC_Handler                              0x0800021f   Thumb Code     2  stm32f10x_it.o(.text)
    DebugMon_Handler                         0x08000221   Thumb Code     2  stm32f10x_it.o(.text)
    PendSV_Handler                           0x08000223   Thumb Code     2  stm32f10x_it.o(.text)
    USART1_Config                            0x08000225   Thumb Code   280  usart1.o(.text)
    DMA1_Channel5_IRQHandler                 0x0800033d   Thumb Code    60  usart1.o(.text)
    USART1_IRQHandler                        0x08000379   Thumb Code    44  usart1.o(.text)
    fputc                                    0x080003a5   Thumb Code    30  usart1.o(.text)
    USART1_printf                            0x0800042b   Thumb Code   252  usart1.o(.text)
    NVIC_PriorityGroupConfig                 0x08000541   Thumb Code    14  misc.o(.text)
    NVIC_Init                                0x0800054f   Thumb Code   116  misc.o(.text)
    NVIC_SetVectorTable                      0x080005c3   Thumb Code    16  misc.o(.text)
    NVIC_SystemLPConfig                      0x080005d3   Thumb Code    24  misc.o(.text)
    SysTick_CLKSourceConfig                  0x080005eb   Thumb Code    28  misc.o(.text)
    DelayInit                                0x08000615   Thumb Code    60  delay v2.0.o(.text)
    SysTick_Handler                          0x08000651   Thumb Code    18  delay v2.0.o(.text)
    delayus                                  0x08000663   Thumb Code    54  delay v2.0.o(.text)
    delayms                                  0x08000699   Thumb Code    50  delay v2.0.o(.text)
    Software_Delay                           0x080006cb   Thumb Code    10  delay v2.0.o(.text)
    PinCfg_KEY                               0x080006e5   Thumb Code    40  pincfg.o(.text)
    PinCfg_CD4051                            0x0800070d   Thumb Code    62  pincfg.o(.text)
    PinCfg_JDQ                               0x0800074b   Thumb Code    38  pincfg.o(.text)
    PinCfg_SWITCH                            0x08000771   Thumb Code    38  pincfg.o(.text)
    PinCfg                                   0x08000797   Thumb Code    20  pincfg.o(.text)
    PinCfg_Beep                              0x080007ab   Thumb Code    64  pincfg.o(.text)
    ADC1_GPIO_Init                           0x08000801   Thumb Code    42  adc.o(.text)
    ADC1_Mode_Config                         0x0800082b   Thumb Code   302  adc.o(.text)
    GetTempSensor                            0x08000959   Thumb Code    80  adc.o(.text)
    ADC1_Init                                0x080009a9   Thumb Code    12  adc.o(.text)
    DMA1_Channel1_IRQHandler                 0x080009b5   Thumb Code    38  adc.o(.text)
    Earse_AD_FIFO                            0x080009db   Thumb Code    20  adc.o(.text)
    DACTriggerByTIM2                         0x08000a15   Thumb Code    64  dac v2.0.o(.text)
    DAC_Config                               0x08000a55   Thumb Code   172  dac v2.0.o(.text)
    Set_DAC_Value                            0x08000b01   Thumb Code    44  dac v2.0.o(.text)
    EXTI_Config                              0x08000b83   Thumb Code    90  exti.o(.text)
    EXTI0_IRQHandler                         0x08000bdd   Thumb Code   126  exti.o(.text)
    EXTI1_IRQHandler                         0x08000c5b   Thumb Code   102  exti.o(.text)
    Key_Scan                                 0x08000ced   Thumb Code    56  indkey.o(.text)
    Key_EXTI_Config                          0x08000d25   Thumb Code   100  indkey.o(.text)
    EXTI15_10_IRQHandler                     0x08000d89   Thumb Code   102  indkey.o(.text)
    IWDG_Init                                0x08000df9   Thumb Code    38  iwdg.o(.text)
    IWDG_Feed                                0x08000e1f   Thumb Code    10  iwdg.o(.text)
    AutoGainScan                             0x08000e2d   Thumb Code   364  oscilloscope.o(.text)
    ManualGainScan                           0x08000f99   Thumb Code   358  oscilloscope.o(.text)
    GetSquareWavePriod                       0x080010ff   Thumb Code    58  oscilloscope.o(.text)
    FG_StartOutput                           0x08001139   Thumb Code   132  oscilloscope.o(.text)
    FunctionGenerator                        0x080011bd   Thumb Code   588  oscilloscope.o(.text)
    TimeBaseControl                          0x08001409   Thumb Code    44  oscilloscope.o(.text)
    TIM5_Config                              0x0800144d   Thumb Code    94  timer.o(.text)
    TIM5_Set_Time                            0x080014ab   Thumb Code    34  timer.o(.text)
    TIM4_Config                              0x080014cd   Thumb Code    56  timer.o(.text)
    TIM5_IRQHandler                          0x08001505   Thumb Code    34  timer.o(.text)
    Reset_LCD                                0x08001539   Thumb Code    30  tft_api.o(.text)
    BGR_To_RGB                               0x08001557   Thumb Code    18  tft_api.o(.text)
    LCD_Clear_Select                         0x08001569   Thumb Code   112  tft_api.o(.text)
    LCD_Clear_All                            0x080015d9   Thumb Code    88  tft_api.o(.text)
    Draw_Point                               0x08001631   Thumb Code    88  tft_api.o(.text)
    Get_Point                                0x08001689   Thumb Code    58  tft_api.o(.text)
    Set_Cursor                               0x080016c3   Thumb Code    50  tft_api.o(.text)
    Draw_Line                                0x080016f5   Thumb Code   290  tft_api.o(.text)
    Draw_DottedHLine                         0x08001817   Thumb Code    74  tft_api.o(.text)
    Draw_DottedVLine                         0x08001861   Thumb Code    74  tft_api.o(.text)
    Draw_Rectangle                           0x080018ab   Thumb Code    76  tft_api.o(.text)
    Draw_Sin                                 0x080018f7   Thumb Code   164  tft_api.o(.text)
    Draw_Circle                              0x0800199b   Thumb Code   338  tft_api.o(.text)
    LCD_Write_Char                           0x08001aed   Thumb Code   106  tft_api.o(.text)
    LCD_Write_String                         0x08001b57   Thumb Code    82  tft_api.o(.text)
    LCD_Write_Char_CH                        0x08001ba9   Thumb Code   104  tft_api.o(.text)
    LCD_Write_String_CH                      0x08001c11   Thumb Code    52  tft_api.o(.text)
    LCD_Write_Bmp                            0x08001c45   Thumb Code   118  tft_api.o(.text)
    Draw_Picture                             0x08001cbb   Thumb Code   168  tft_api.o(.text)
    LCD_WR_REG                               0x08001d69   Thumb Code     8  tft_drive.o(.text)
    LCD_WR_CMD                               0x08001d71   Thumb Code    12  tft_drive.o(.text)
    LCD_RD_data                              0x08001d7d   Thumb Code     8  tft_drive.o(.text)
    LCD_WR_Data                              0x08001d85   Thumb Code     6  tft_drive.o(.text)
    LCD_WR_Data_8                            0x08001d8b   Thumb Code     6  tft_drive.o(.text)
    LCD1963_Init                             0x08001d91   Thumb Code   444  tft_drive.o(.text)
    FSMC_LCD_Init                            0x08001f4d   Thumb Code   230  tft_drive.o(.text)
    SPI_Config                               0x08002049   Thumb Code   270  tsc2046.o(.text)
    TSC2046_Config                           0x08002157   Thumb Code     2  tsc2046.o(.text)
    SPI_WriteByte                            0x08002159   Thumb Code    48  tsc2046.o(.text)
    SPI_ReadByte                             0x08002189   Thumb Code     4  tsc2046.o(.text)
    TP_ReadX                                 0x0800218d   Thumb Code    68  tsc2046.o(.text)
    TP_ReadY                                 0x080021d1   Thumb Code    68  tsc2046.o(.text)
    BubbleSort                               0x08002215   Thumb Code    70  tsc2046.o(.text)
    TP_Read                                  0x0800225b   Thumb Code   190  tsc2046.o(.text)
    TP_ADtoZB                                0x08002319   Thumb Code    60  tsc2046.o(.text)
    GPIO_DeInit                              0x08002375   Thumb Code   192  stm32f10x_gpio.o(.text)
    GPIO_AFIODeInit                          0x08002435   Thumb Code    22  stm32f10x_gpio.o(.text)
    GPIO_Init                                0x0800244b   Thumb Code   186  stm32f10x_gpio.o(.text)
    GPIO_StructInit                          0x08002505   Thumb Code    16  stm32f10x_gpio.o(.text)
    GPIO_ReadInputDataBit                    0x08002515   Thumb Code    14  stm32f10x_gpio.o(.text)
    GPIO_ReadInputData                       0x08002523   Thumb Code     6  stm32f10x_gpio.o(.text)
    GPIO_ReadOutputDataBit                   0x08002529   Thumb Code    14  stm32f10x_gpio.o(.text)
    GPIO_ReadOutputData                      0x08002537   Thumb Code     6  stm32f10x_gpio.o(.text)
    GPIO_SetBits                             0x0800253d   Thumb Code     4  stm32f10x_gpio.o(.text)
    GPIO_ResetBits                           0x08002541   Thumb Code     4  stm32f10x_gpio.o(.text)
    GPIO_WriteBit                            0x08002545   Thumb Code    12  stm32f10x_gpio.o(.text)
    GPIO_Write                               0x08002551   Thumb Code     4  stm32f10x_gpio.o(.text)
    GPIO_PinLockConfig                       0x08002555   Thumb Code    16  stm32f10x_gpio.o(.text)
    GPIO_EventOutputConfig                   0x08002565   Thumb Code    22  stm32f10x_gpio.o(.text)
    GPIO_EventOutputCmd                      0x0800257b   Thumb Code     6  stm32f10x_gpio.o(.text)
    GPIO_PinRemapConfig                      0x08002581   Thumb Code   120  stm32f10x_gpio.o(.text)
    GPIO_EXTILineConfig                      0x080025f9   Thumb Code    40  stm32f10x_gpio.o(.text)
    GPIO_ETH_MediaInterfaceConfig            0x08002621   Thumb Code     6  stm32f10x_gpio.o(.text)
    RCC_DeInit                               0x08002635   Thumb Code    54  stm32f10x_rcc.o(.text)
    RCC_HSEConfig                            0x0800266b   Thumb Code    50  stm32f10x_rcc.o(.text)
    RCC_GetFlagStatus                        0x0800269d   Thumb Code    44  stm32f10x_rcc.o(.text)
    RCC_WaitForHSEStartUp                    0x080026c9   Thumb Code    46  stm32f10x_rcc.o(.text)
    RCC_AdjustHSICalibrationValue            0x080026f7   Thumb Code    16  stm32f10x_rcc.o(.text)
    RCC_HSICmd                               0x08002707   Thumb Code     6  stm32f10x_rcc.o(.text)
    RCC_PLLConfig                            0x0800270d   Thumb Code    16  stm32f10x_rcc.o(.text)
    RCC_PLLCmd                               0x0800271d   Thumb Code     6  stm32f10x_rcc.o(.text)
    RCC_SYSCLKConfig                         0x08002723   Thumb Code    14  stm32f10x_rcc.o(.text)
    RCC_GetSYSCLKSource                      0x08002731   Thumb Code    10  stm32f10x_rcc.o(.text)
    RCC_HCLKConfig                           0x0800273b   Thumb Code    14  stm32f10x_rcc.o(.text)
    RCC_PCLK1Config                          0x08002749   Thumb Code    14  stm32f10x_rcc.o(.text)
    RCC_PCLK2Config                          0x08002757   Thumb Code    16  stm32f10x_rcc.o(.text)
    RCC_ITConfig                             0x08002767   Thumb Code    24  stm32f10x_rcc.o(.text)
    RCC_USBCLKConfig                         0x0800277f   Thumb Code     6  stm32f10x_rcc.o(.text)
    RCC_ADCCLKConfig                         0x08002785   Thumb Code    14  stm32f10x_rcc.o(.text)
    RCC_LSEConfig                            0x08002793   Thumb Code    36  stm32f10x_rcc.o(.text)
    RCC_LSICmd                               0x080027b7   Thumb Code     6  stm32f10x_rcc.o(.text)
    RCC_RTCCLKConfig                         0x080027bd   Thumb Code    10  stm32f10x_rcc.o(.text)
    RCC_RTCCLKCmd                            0x080027c7   Thumb Code     6  stm32f10x_rcc.o(.text)
    RCC_GetClocksFreq                        0x080027cd   Thumb Code   166  stm32f10x_rcc.o(.text)
    RCC_AHBPeriphClockCmd                    0x08002873   Thumb Code    24  stm32f10x_rcc.o(.text)
    RCC_APB2PeriphClockCmd                   0x0800288b   Thumb Code    24  stm32f10x_rcc.o(.text)
    RCC_APB1PeriphClockCmd                   0x080028a3   Thumb Code    24  stm32f10x_rcc.o(.text)
    RCC_APB2PeriphResetCmd                   0x080028bb   Thumb Code    24  stm32f10x_rcc.o(.text)
    RCC_APB1PeriphResetCmd                   0x080028d3   Thumb Code    24  stm32f10x_rcc.o(.text)
    RCC_BackupResetCmd                       0x080028eb   Thumb Code     6  stm32f10x_rcc.o(.text)
    RCC_ClockSecuritySystemCmd               0x080028f1   Thumb Code     6  stm32f10x_rcc.o(.text)
    RCC_MCOConfig                            0x080028f7   Thumb Code     6  stm32f10x_rcc.o(.text)
    RCC_ClearFlag                            0x080028fd   Thumb Code    12  stm32f10x_rcc.o(.text)
    RCC_GetITStatus                          0x08002909   Thumb Code    16  stm32f10x_rcc.o(.text)
    RCC_ClearITPendingBit                    0x08002919   Thumb Code     6  stm32f10x_rcc.o(.text)
    USART_DeInit                             0x08002949   Thumb Code   148  stm32f10x_usart.o(.text)
    USART_Init                               0x080029dd   Thumb Code   194  stm32f10x_usart.o(.text)
    USART_StructInit                         0x08002a9f   Thumb Code    22  stm32f10x_usart.o(.text)
    USART_ClockInit                          0x08002ab5   Thumb Code    36  stm32f10x_usart.o(.text)
    USART_ClockStructInit                    0x08002ad9   Thumb Code    12  stm32f10x_usart.o(.text)
    USART_Cmd                                0x08002ae5   Thumb Code    24  stm32f10x_usart.o(.text)
    USART_ITConfig                           0x08002afd   Thumb Code    58  stm32f10x_usart.o(.text)
    USART_DMACmd                             0x08002b37   Thumb Code    22  stm32f10x_usart.o(.text)
    USART_SetAddress                         0x08002b4d   Thumb Code    16  stm32f10x_usart.o(.text)
    USART_WakeUpConfig                       0x08002b5d   Thumb Code    16  stm32f10x_usart.o(.text)
    USART_ReceiverWakeUpCmd                  0x08002b6d   Thumb Code    24  stm32f10x_usart.o(.text)
    USART_LINBreakDetectLengthConfig         0x08002b85   Thumb Code    16  stm32f10x_usart.o(.text)
    USART_LINCmd                             0x08002b95   Thumb Code    24  stm32f10x_usart.o(.text)
    USART_SendData                           0x08002bad   Thumb Code     8  stm32f10x_usart.o(.text)
    USART_ReceiveData                        0x08002bb5   Thumb Code     8  stm32f10x_usart.o(.text)
    USART_SendBreak                          0x08002bbd   Thumb Code    10  stm32f10x_usart.o(.text)
    USART_SetGuardTime                       0x08002bc7   Thumb Code    16  stm32f10x_usart.o(.text)
    USART_SetPrescaler                       0x08002bd7   Thumb Code    16  stm32f10x_usart.o(.text)
    USART_SmartCardCmd                       0x08002be7   Thumb Code    24  stm32f10x_usart.o(.text)
    USART_SmartCardNACKCmd                   0x08002bff   Thumb Code    24  stm32f10x_usart.o(.text)
    USART_HalfDuplexCmd                      0x08002c17   Thumb Code    24  stm32f10x_usart.o(.text)
    USART_OverSampling8Cmd                   0x08002c2f   Thumb Code    24  stm32f10x_usart.o(.text)
    USART_OneBitMethodCmd                    0x08002c47   Thumb Code    24  stm32f10x_usart.o(.text)
    USART_IrDAConfig                         0x08002c5f   Thumb Code    16  stm32f10x_usart.o(.text)
    USART_IrDACmd                            0x08002c6f   Thumb Code    24  stm32f10x_usart.o(.text)
    USART_GetFlagStatus                      0x08002c87   Thumb Code    14  stm32f10x_usart.o(.text)
    USART_ClearFlag                          0x08002c95   Thumb Code    10  stm32f10x_usart.o(.text)
    USART_GetITStatus                        0x08002c9f   Thumb Code    72  stm32f10x_usart.o(.text)
    USART_ClearITPendingBit                  0x08002ce7   Thumb Code    18  stm32f10x_usart.o(.text)
    FSMC_NORSRAMDeInit                       0x08002cfd   Thumb Code    48  stm32f10x_fsmc.o(.text)
    FSMC_NANDDeInit                          0x08002d2d   Thumb Code    48  stm32f10x_fsmc.o(.text)
    FSMC_PCCARDDeInit                        0x08002d5d   Thumb Code    22  stm32f10x_fsmc.o(.text)
    FSMC_NORSRAMInit                         0x08002d73   Thumb Code   204  stm32f10x_fsmc.o(.text)
    FSMC_NANDInit                            0x08002e3f   Thumb Code   126  stm32f10x_fsmc.o(.text)
    FSMC_PCCARDInit                          0x08002ebd   Thumb Code   108  stm32f10x_fsmc.o(.text)
    FSMC_NORSRAMStructInit                   0x08002f29   Thumb Code   128  stm32f10x_fsmc.o(.text)
    FSMC_NANDStructInit                      0x08002fa9   Thumb Code    54  stm32f10x_fsmc.o(.text)
    FSMC_PCCARDStructInit                    0x08002fdf   Thumb Code    60  stm32f10x_fsmc.o(.text)
    FSMC_NORSRAMCmd                          0x0800301b   Thumb Code    30  stm32f10x_fsmc.o(.text)
    FSMC_NANDCmd                             0x08003039   Thumb Code    62  stm32f10x_fsmc.o(.text)
    FSMC_PCCARDCmd                           0x08003077   Thumb Code    36  stm32f10x_fsmc.o(.text)
    FSMC_NANDECCCmd                          0x0800309b   Thumb Code    62  stm32f10x_fsmc.o(.text)
    FSMC_GetECC                              0x080030d9   Thumb Code    18  stm32f10x_fsmc.o(.text)
    FSMC_ITConfig                            0x080030eb   Thumb Code   110  stm32f10x_fsmc.o(.text)
    FSMC_GetFlagStatus                       0x08003159   Thumb Code    40  stm32f10x_fsmc.o(.text)
    FSMC_ClearFlag                           0x08003181   Thumb Code    46  stm32f10x_fsmc.o(.text)
    FSMC_GetITStatus                         0x080031af   Thumb Code    48  stm32f10x_fsmc.o(.text)
    FSMC_ClearITPendingBit                   0x080031df   Thumb Code    52  stm32f10x_fsmc.o(.text)
    ADC_DeInit                               0x08003215   Thumb Code    92  stm32f10x_adc.o(.text)
    ADC_Init                                 0x08003271   Thumb Code    72  stm32f10x_adc.o(.text)
    ADC_StructInit                           0x080032b9   Thumb Code    18  stm32f10x_adc.o(.text)
    ADC_Cmd                                  0x080032cb   Thumb Code    24  stm32f10x_adc.o(.text)
    ADC_DMACmd                               0x080032e3   Thumb Code    24  stm32f10x_adc.o(.text)
    ADC_ITConfig                             0x080032fb   Thumb Code    24  stm32f10x_adc.o(.text)
    ADC_ResetCalibration                     0x08003313   Thumb Code    10  stm32f10x_adc.o(.text)
    ADC_GetResetCalibrationStatus            0x0800331d   Thumb Code    16  stm32f10x_adc.o(.text)
    ADC_StartCalibration                     0x0800332d   Thumb Code    10  stm32f10x_adc.o(.text)
    ADC_GetCalibrationStatus                 0x08003337   Thumb Code    16  stm32f10x_adc.o(.text)
    ADC_SoftwareStartConvCmd                 0x08003347   Thumb Code    24  stm32f10x_adc.o(.text)
    ADC_GetSoftwareStartConvStatus           0x0800335f   Thumb Code    16  stm32f10x_adc.o(.text)
    ADC_DiscModeChannelCountConfig           0x0800336f   Thumb Code    16  stm32f10x_adc.o(.text)
    ADC_DiscModeCmd                          0x0800337f   Thumb Code    24  stm32f10x_adc.o(.text)
    ADC_RegularChannelConfig                 0x08003397   Thumb Code   144  stm32f10x_adc.o(.text)
    ADC_ExternalTrigConvCmd                  0x08003427   Thumb Code    24  stm32f10x_adc.o(.text)
    ADC_GetConversionValue                   0x0800343f   Thumb Code     6  stm32f10x_adc.o(.text)
    ADC_GetDualModeConversionValue           0x08003445   Thumb Code     6  stm32f10x_adc.o(.text)
    ADC_AutoInjectedConvCmd                  0x0800344b   Thumb Code    24  stm32f10x_adc.o(.text)
    ADC_InjectedDiscModeCmd                  0x08003463   Thumb Code    24  stm32f10x_adc.o(.text)
    ADC_ExternalTrigInjectedConvConfig       0x0800347b   Thumb Code    12  stm32f10x_adc.o(.text)
    ADC_ExternalTrigInjectedConvCmd          0x08003487   Thumb Code    24  stm32f10x_adc.o(.text)
    ADC_SoftwareStartInjectedConvCmd         0x0800349f   Thumb Code    24  stm32f10x_adc.o(.text)
    ADC_GetSoftwareStartInjectedConvCmdStatus 0x080034b7   Thumb Code    16  stm32f10x_adc.o(.text)
    ADC_InjectedChannelConfig                0x080034c7   Thumb Code    92  stm32f10x_adc.o(.text)
    ADC_InjectedSequencerLengthConfig        0x08003523   Thumb Code    16  stm32f10x_adc.o(.text)
    ADC_SetInjectedOffset                    0x08003533   Thumb Code    18  stm32f10x_adc.o(.text)
    ADC_GetInjectedConversionValue           0x08003545   Thumb Code    22  stm32f10x_adc.o(.text)
    ADC_AnalogWatchdogCmd                    0x0800355b   Thumb Code    16  stm32f10x_adc.o(.text)
    ADC_AnalogWatchdogThresholdsConfig       0x0800356b   Thumb Code     6  stm32f10x_adc.o(.text)
    ADC_AnalogWatchdogSingleChannelConfig    0x08003571   Thumb Code    12  stm32f10x_adc.o(.text)
    ADC_TempSensorVrefintCmd                 0x0800357d   Thumb Code    26  stm32f10x_adc.o(.text)
    ADC_GetFlagStatus                        0x08003597   Thumb Code    14  stm32f10x_adc.o(.text)
    ADC_ClearFlag                            0x080035a5   Thumb Code     6  stm32f10x_adc.o(.text)
    ADC_GetITStatus                          0x080035ab   Thumb Code    28  stm32f10x_adc.o(.text)
    ADC_ClearITPendingBit                    0x080035c7   Thumb Code     8  stm32f10x_adc.o(.text)
    BKP_DeInit                               0x080035dd   Thumb Code    18  stm32f10x_bkp.o(.text)
    BKP_TamperPinLevelConfig                 0x080035ef   Thumb Code     6  stm32f10x_bkp.o(.text)
    BKP_TamperPinCmd                         0x080035f5   Thumb Code     6  stm32f10x_bkp.o(.text)
    BKP_ITConfig                             0x080035fb   Thumb Code     6  stm32f10x_bkp.o(.text)
    BKP_RTCOutputConfig                      0x08003601   Thumb Code    14  stm32f10x_bkp.o(.text)
    BKP_SetRTCCalibrationValue               0x0800360f   Thumb Code    14  stm32f10x_bkp.o(.text)
    BKP_WriteBackupRegister                  0x0800361d   Thumb Code    20  stm32f10x_bkp.o(.text)
    BKP_ReadBackupRegister                   0x08003631   Thumb Code    20  stm32f10x_bkp.o(.text)
    BKP_GetFlagStatus                        0x08003645   Thumb Code     8  stm32f10x_bkp.o(.text)
    BKP_ClearFlag                            0x0800364d   Thumb Code    12  stm32f10x_bkp.o(.text)
    BKP_GetITStatus                          0x08003659   Thumb Code     8  stm32f10x_bkp.o(.text)
    BKP_ClearITPendingBit                    0x08003661   Thumb Code    12  stm32f10x_bkp.o(.text)
    DAC_DeInit                               0x08003689   Thumb Code    24  stm32f10x_dac.o(.text)
    DAC_Init                                 0x080036a1   Thumb Code    50  stm32f10x_dac.o(.text)
    DAC_StructInit                           0x080036d3   Thumb Code    12  stm32f10x_dac.o(.text)
    DAC_Cmd                                  0x080036df   Thumb Code    30  stm32f10x_dac.o(.text)
    DAC_DMACmd                               0x080036fd   Thumb Code    30  stm32f10x_dac.o(.text)
    DAC_SoftwareTriggerCmd                   0x0800371b   Thumb Code    32  stm32f10x_dac.o(.text)
    DAC_DualSoftwareTriggerCmd               0x0800373b   Thumb Code    26  stm32f10x_dac.o(.text)
    DAC_WaveGenerationCmd                    0x08003755   Thumb Code    28  stm32f10x_dac.o(.text)
    DAC_SetChannel1Data                      0x08003771   Thumb Code    22  stm32f10x_dac.o(.text)
    DAC_SetChannel2Data                      0x08003787   Thumb Code    22  stm32f10x_dac.o(.text)
    DAC_SetDualChannelData                   0x0800379d   Thumb Code    26  stm32f10x_dac.o(.text)
    DAC_GetDataOutputValue                   0x080037b7   Thumb Code    22  stm32f10x_dac.o(.text)
    DMA_DeInit                               0x080037d5   Thumb Code   216  stm32f10x_dma.o(.text)
    DMA_Init                                 0x080038ad   Thumb Code    84  stm32f10x_dma.o(.text)
    DMA_StructInit                           0x08003901   Thumb Code    26  stm32f10x_dma.o(.text)
    DMA_Cmd                                  0x0800391b   Thumb Code    26  stm32f10x_dma.o(.text)
    DMA_ITConfig                             0x08003935   Thumb Code    22  stm32f10x_dma.o(.text)
    DMA_SetCurrDataCounter                   0x0800394b   Thumb Code     4  stm32f10x_dma.o(.text)
    DMA_GetCurrDataCounter                   0x0800394f   Thumb Code     6  stm32f10x_dma.o(.text)
    DMA_GetFlagStatus                        0x08003955   Thumb Code    28  stm32f10x_dma.o(.text)
    DMA_ClearFlag                            0x08003971   Thumb Code    18  stm32f10x_dma.o(.text)
    DMA_GetITStatus                          0x08003983   Thumb Code    28  stm32f10x_dma.o(.text)
    DMA_ClearITPendingBit                    0x0800399f   Thumb Code    18  stm32f10x_dma.o(.text)
    EXTI_DeInit                              0x080039ed   Thumb Code    26  stm32f10x_exti.o(.text)
    EXTI_Init                                0x08003a07   Thumb Code   136  stm32f10x_exti.o(.text)
    EXTI_StructInit                          0x08003a8f   Thumb Code    14  stm32f10x_exti.o(.text)
    EXTI_GenerateSWInterrupt                 0x08003a9d   Thumb Code    10  stm32f10x_exti.o(.text)
    EXTI_GetFlagStatus                       0x08003aa7   Thumb Code    16  stm32f10x_exti.o(.text)
    EXTI_ClearFlag                           0x08003ab7   Thumb Code     6  stm32f10x_exti.o(.text)
    EXTI_GetITStatus                         0x08003abd   Thumb Code    24  stm32f10x_exti.o(.text)
    EXTI_ClearITPendingBit                   0x08003ad5   Thumb Code     6  stm32f10x_exti.o(.text)
    IWDG_WriteAccessCmd                      0x08003af1   Thumb Code     6  stm32f10x_iwdg.o(.text)
    IWDG_SetPrescaler                        0x08003af7   Thumb Code     6  stm32f10x_iwdg.o(.text)
    IWDG_SetReload                           0x08003afd   Thumb Code     6  stm32f10x_iwdg.o(.text)
    IWDG_ReloadCounter                       0x08003b03   Thumb Code    10  stm32f10x_iwdg.o(.text)
    IWDG_Enable                              0x08003b0d   Thumb Code    10  stm32f10x_iwdg.o(.text)
    IWDG_GetFlagStatus                       0x08003b17   Thumb Code    16  stm32f10x_iwdg.o(.text)
    PWR_DeInit                               0x08003b2d   Thumb Code    24  stm32f10x_pwr.o(.text)
    PWR_BackupAccessCmd                      0x08003b45   Thumb Code     6  stm32f10x_pwr.o(.text)
    PWR_PVDCmd                               0x08003b4b   Thumb Code     6  stm32f10x_pwr.o(.text)
    PWR_PVDLevelConfig                       0x08003b51   Thumb Code    14  stm32f10x_pwr.o(.text)
    PWR_WakeUpPinCmd                         0x08003b5f   Thumb Code     6  stm32f10x_pwr.o(.text)
    PWR_EnterSTOPMode                        0x08003b65   Thumb Code    42  stm32f10x_pwr.o(.text)
    PWR_EnterSTANDBYMode                     0x08003b8f   Thumb Code    32  stm32f10x_pwr.o(.text)
    PWR_GetFlagStatus                        0x08003baf   Thumb Code    16  stm32f10x_pwr.o(.text)
    PWR_ClearFlag                            0x08003bbf   Thumb Code    12  stm32f10x_pwr.o(.text)
    RTC_ITConfig                             0x08003bdd   Thumb Code    24  stm32f10x_rtc.o(.text)
    RTC_EnterConfigMode                      0x08003bf5   Thumb Code    12  stm32f10x_rtc.o(.text)
    RTC_ExitConfigMode                       0x08003c01   Thumb Code    12  stm32f10x_rtc.o(.text)
    RTC_GetCounter                           0x08003c0d   Thumb Code    14  stm32f10x_rtc.o(.text)
    RTC_SetCounter                           0x08003c1b   Thumb Code    24  stm32f10x_rtc.o(.text)
    RTC_SetPrescaler                         0x08003c33   Thumb Code    26  stm32f10x_rtc.o(.text)
    RTC_SetAlarm                             0x08003c4d   Thumb Code    24  stm32f10x_rtc.o(.text)
    RTC_GetDivider                           0x08003c65   Thumb Code    16  stm32f10x_rtc.o(.text)
    RTC_WaitForLastTask                      0x08003c75   Thumb Code    12  stm32f10x_rtc.o(.text)
    RTC_WaitForSynchro                       0x08003c81   Thumb Code    20  stm32f10x_rtc.o(.text)
    RTC_GetFlagStatus                        0x08003c95   Thumb Code    16  stm32f10x_rtc.o(.text)
    RTC_ClearFlag                            0x08003ca5   Thumb Code    12  stm32f10x_rtc.o(.text)
    RTC_GetITStatus                          0x08003cb1   Thumb Code    26  stm32f10x_rtc.o(.text)
    RTC_ClearITPendingBit                    0x08003ccb   Thumb Code    12  stm32f10x_rtc.o(.text)
    TIM_DeInit                               0x08003cf9   Thumb Code   484  stm32f10x_tim.o(.text)
    TIM_TimeBaseInit                         0x08003edd   Thumb Code   130  stm32f10x_tim.o(.text)
    TIM_OC1Init                              0x08003f5f   Thumb Code   126  stm32f10x_tim.o(.text)
    TIM_OC2Init                              0x08003fdd   Thumb Code   138  stm32f10x_tim.o(.text)
    TIM_OC3Init                              0x08004067   Thumb Code   136  stm32f10x_tim.o(.text)
    TIM_OC4Init                              0x080040ef   Thumb Code   106  stm32f10x_tim.o(.text)
    TIM_SetIC4Prescaler                      0x08004159   Thumb Code    24  stm32f10x_tim.o(.text)
    TIM_SetIC3Prescaler                      0x080041e3   Thumb Code    16  stm32f10x_tim.o(.text)
    TIM_SetIC2Prescaler                      0x08004261   Thumb Code    24  stm32f10x_tim.o(.text)
    TIM_SetIC1Prescaler                      0x080042f5   Thumb Code    16  stm32f10x_tim.o(.text)
    TIM_ICInit                               0x0800436f   Thumb Code   114  stm32f10x_tim.o(.text)
    TIM_PWMIConfig                           0x080043e1   Thumb Code   106  stm32f10x_tim.o(.text)
    TIM_BDTRConfig                           0x0800444b   Thumb Code    36  stm32f10x_tim.o(.text)
    TIM_TimeBaseStructInit                   0x0800446f   Thumb Code    18  stm32f10x_tim.o(.text)
    TIM_OCStructInit                         0x08004481   Thumb Code    20  stm32f10x_tim.o(.text)
    TIM_ICStructInit                         0x08004495   Thumb Code    16  stm32f10x_tim.o(.text)
    TIM_BDTRStructInit                       0x080044a5   Thumb Code    18  stm32f10x_tim.o(.text)
    TIM_Cmd                                  0x080044b7   Thumb Code    24  stm32f10x_tim.o(.text)
    TIM_CtrlPWMOutputs                       0x080044cf   Thumb Code    32  stm32f10x_tim.o(.text)
    TIM_ITConfig                             0x080044ef   Thumb Code    22  stm32f10x_tim.o(.text)
    TIM_GenerateEvent                        0x08004505   Thumb Code     4  stm32f10x_tim.o(.text)
    TIM_DMAConfig                            0x08004509   Thumb Code     8  stm32f10x_tim.o(.text)
    TIM_DMACmd                               0x08004511   Thumb Code    22  stm32f10x_tim.o(.text)
    TIM_InternalClockConfig                  0x08004527   Thumb Code    10  stm32f10x_tim.o(.text)
    TIM_SelectInputTrigger                   0x08004531   Thumb Code    12  stm32f10x_tim.o(.text)
    TIM_ITRxExternalClockConfig              0x0800453d   Thumb Code    20  stm32f10x_tim.o(.text)
    TIM_TIxExternalClockConfig               0x08004551   Thumb Code    48  stm32f10x_tim.o(.text)
    TIM_ETRConfig                            0x08004581   Thumb Code    32  stm32f10x_tim.o(.text)
    TIM_ETRClockMode1Config                  0x080045a1   Thumb Code    32  stm32f10x_tim.o(.text)
    TIM_ETRClockMode2Config                  0x080045c1   Thumb Code    20  stm32f10x_tim.o(.text)
    TIM_PrescalerConfig                      0x080045d5   Thumb Code     6  stm32f10x_tim.o(.text)
    TIM_CounterModeConfig                    0x080045db   Thumb Code    12  stm32f10x_tim.o(.text)
    TIM_EncoderInterfaceConfig               0x080045e7   Thumb Code    60  stm32f10x_tim.o(.text)
    TIM_ForcedOC1Config                      0x08004623   Thumb Code    12  stm32f10x_tim.o(.text)
    TIM_ForcedOC2Config                      0x0800462f   Thumb Code    20  stm32f10x_tim.o(.text)
    TIM_ForcedOC3Config                      0x08004643   Thumb Code    12  stm32f10x_tim.o(.text)
    TIM_ForcedOC4Config                      0x0800464f   Thumb Code    20  stm32f10x_tim.o(.text)
    TIM_ARRPreloadConfig                     0x08004663   Thumb Code    24  stm32f10x_tim.o(.text)
    TIM_SelectCOM                            0x0800467b   Thumb Code    24  stm32f10x_tim.o(.text)
    TIM_SelectCCDMA                          0x08004693   Thumb Code    24  stm32f10x_tim.o(.text)
    TIM_CCPreloadControl                     0x080046ab   Thumb Code    24  stm32f10x_tim.o(.text)
    TIM_OC1PreloadConfig                     0x080046c3   Thumb Code    12  stm32f10x_tim.o(.text)
    TIM_OC2PreloadConfig                     0x080046cf   Thumb Code    20  stm32f10x_tim.o(.text)
    TIM_OC3PreloadConfig                     0x080046e3   Thumb Code    12  stm32f10x_tim.o(.text)
    TIM_OC4PreloadConfig                     0x080046ef   Thumb Code    20  stm32f10x_tim.o(.text)
    TIM_OC1FastConfig                        0x08004703   Thumb Code    12  stm32f10x_tim.o(.text)
    TIM_OC2FastConfig                        0x0800470f   Thumb Code    20  stm32f10x_tim.o(.text)
    TIM_OC3FastConfig                        0x08004723   Thumb Code    12  stm32f10x_tim.o(.text)
    TIM_OC4FastConfig                        0x0800472f   Thumb Code    20  stm32f10x_tim.o(.text)
    TIM_ClearOC1Ref                          0x08004743   Thumb Code    12  stm32f10x_tim.o(.text)
    TIM_ClearOC2Ref                          0x0800474f   Thumb Code    20  stm32f10x_tim.o(.text)
    TIM_ClearOC3Ref                          0x08004763   Thumb Code    12  stm32f10x_tim.o(.text)
    TIM_ClearOC4Ref                          0x0800476f   Thumb Code    20  stm32f10x_tim.o(.text)
    TIM_OC1PolarityConfig                    0x08004783   Thumb Code    12  stm32f10x_tim.o(.text)
    TIM_OC1NPolarityConfig                   0x0800478f   Thumb Code    12  stm32f10x_tim.o(.text)
    TIM_OC2PolarityConfig                    0x0800479b   Thumb Code    20  stm32f10x_tim.o(.text)
    TIM_OC2NPolarityConfig                   0x080047af   Thumb Code    20  stm32f10x_tim.o(.text)
    TIM_OC3PolarityConfig                    0x080047c3   Thumb Code    20  stm32f10x_tim.o(.text)
    TIM_OC3NPolarityConfig                   0x080047d7   Thumb Code    20  stm32f10x_tim.o(.text)
    TIM_OC4PolarityConfig                    0x080047eb   Thumb Code    20  stm32f10x_tim.o(.text)
    TIM_CCxCmd                               0x080047ff   Thumb Code    26  stm32f10x_tim.o(.text)
    TIM_CCxNCmd                              0x08004819   Thumb Code    26  stm32f10x_tim.o(.text)
    TIM_SelectOCxM                           0x08004833   Thumb Code    88  stm32f10x_tim.o(.text)
    TIM_UpdateDisableConfig                  0x0800488b   Thumb Code    24  stm32f10x_tim.o(.text)
    TIM_UpdateRequestConfig                  0x080048a3   Thumb Code    24  stm32f10x_tim.o(.text)
    TIM_SelectHallSensor                     0x080048bb   Thumb Code    24  stm32f10x_tim.o(.text)
    TIM_SelectOnePulseMode                   0x080048d3   Thumb Code    16  stm32f10x_tim.o(.text)
    TIM_SelectOutputTrigger                  0x080048e3   Thumb Code    16  stm32f10x_tim.o(.text)
    TIM_SelectSlaveMode                      0x080048f3   Thumb Code    16  stm32f10x_tim.o(.text)
    TIM_SelectMasterSlaveMode                0x08004903   Thumb Code    16  stm32f10x_tim.o(.text)
    TIM_SetCounter                           0x08004913   Thumb Code     4  stm32f10x_tim.o(.text)
    TIM_SetAutoreload                        0x08004917   Thumb Code     4  stm32f10x_tim.o(.text)
    TIM_SetCompare1                          0x0800491b   Thumb Code     4  stm32f10x_tim.o(.text)
    TIM_SetCompare2                          0x0800491f   Thumb Code     4  stm32f10x_tim.o(.text)
    TIM_SetCompare3                          0x08004923   Thumb Code     4  stm32f10x_tim.o(.text)
    TIM_SetCompare4                          0x08004927   Thumb Code     6  stm32f10x_tim.o(.text)
    TIM_SetClockDivision                     0x0800492d   Thumb Code    16  stm32f10x_tim.o(.text)
    TIM_GetCapture1                          0x0800493d   Thumb Code     4  stm32f10x_tim.o(.text)
    TIM_GetCapture2                          0x08004941   Thumb Code     4  stm32f10x_tim.o(.text)
    TIM_GetCapture3                          0x08004945   Thumb Code     4  stm32f10x_tim.o(.text)
    TIM_GetCapture4                          0x08004949   Thumb Code     6  stm32f10x_tim.o(.text)
    TIM_GetCounter                           0x0800494f   Thumb Code     4  stm32f10x_tim.o(.text)
    TIM_GetPrescaler                         0x08004953   Thumb Code     4  stm32f10x_tim.o(.text)
    TIM_GetFlagStatus                        0x08004957   Thumb Code    14  stm32f10x_tim.o(.text)
    TIM_ClearFlag                            0x08004965   Thumb Code     6  stm32f10x_tim.o(.text)
    TIM_GetITStatus                          0x0800496b   Thumb Code    22  stm32f10x_tim.o(.text)
    TIM_ClearITPendingBit                    0x08004981   Thumb Code     6  stm32f10x_tim.o(.text)
    SPI_I2S_DeInit                           0x08004989   Thumb Code    92  stm32f10x_spi.o(.text)
    SPI_Init                                 0x080049e5   Thumb Code    84  stm32f10x_spi.o(.text)
    I2S_Init                                 0x08004a39   Thumb Code   172  stm32f10x_spi.o(.text)
    SPI_StructInit                           0x08004ae5   Thumb Code    24  stm32f10x_spi.o(.text)
    I2S_StructInit                           0x08004afd   Thumb Code    18  stm32f10x_spi.o(.text)
    SPI_Cmd                                  0x08004b0f   Thumb Code    24  stm32f10x_spi.o(.text)
    I2S_Cmd                                  0x08004b27   Thumb Code    24  stm32f10x_spi.o(.text)
    SPI_I2S_ITConfig                         0x08004b3f   Thumb Code    32  stm32f10x_spi.o(.text)
    SPI_I2S_DMACmd                           0x08004b5f   Thumb Code    22  stm32f10x_spi.o(.text)
    SPI_I2S_SendData                         0x08004b75   Thumb Code     4  stm32f10x_spi.o(.text)
    SPI_I2S_ReceiveData                      0x08004b79   Thumb Code     4  stm32f10x_spi.o(.text)
    SPI_NSSInternalSoftwareConfig            0x08004b7d   Thumb Code    28  stm32f10x_spi.o(.text)
    SPI_SSOutputCmd                          0x08004b99   Thumb Code    24  stm32f10x_spi.o(.text)
    SPI_DataSizeConfig                       0x08004bb1   Thumb Code    16  stm32f10x_spi.o(.text)
    SPI_TransmitCRC                          0x08004bc1   Thumb Code    10  stm32f10x_spi.o(.text)
    SPI_CalculateCRC                         0x08004bcb   Thumb Code    24  stm32f10x_spi.o(.text)
    SPI_GetCRC                               0x08004be3   Thumb Code    12  stm32f10x_spi.o(.text)
    SPI_GetCRCPolynomial                     0x08004bef   Thumb Code     4  stm32f10x_spi.o(.text)
    SPI_BiDirectionalLineConfig              0x08004bf3   Thumb Code    26  stm32f10x_spi.o(.text)
    SPI_I2S_GetFlagStatus                    0x08004c0d   Thumb Code    14  stm32f10x_spi.o(.text)
    SPI_I2S_ClearFlag                        0x08004c1b   Thumb Code     6  stm32f10x_spi.o(.text)
    SPI_I2S_GetITStatus                      0x08004c21   Thumb Code    46  stm32f10x_spi.o(.text)
    SPI_I2S_ClearITPendingBit                0x08004c4f   Thumb Code    16  stm32f10x_spi.o(.text)
    SystemInit                               0x08004d11   Thumb Code    68  system_stm32f10x.o(.text)
    SystemCoreClockUpdate                    0x08004d55   Thumb Code   108  system_stm32f10x.o(.text)
    Task_Main                                0x08004de1   Thumb Code    50  app.o(.text)
    Task_GUI                                 0x08004e13   Thumb Code    24  app.o(.text)
    Task_SD                                  0x08004e2b   Thumb Code    20  app.o(.text)
    Task_RTC                                 0x08004e3f   Thumb Code    58  app.o(.text)
    Task_TouchScreen                         0x08004e79   Thumb Code    56  app.o(.text)
    Task_Start                               0x08004eb1   Thumb Code   212  app.o(.text)
    Draw                                     0x08004fa1   Thumb Code   866  task_gui.o(.text)
    DisplayWaveInfo                          0x08005303   Thumb Code   456  task_gui.o(.text)
    ShowRealTimeWave                         0x080054cb   Thumb Code   480  task_gui.o(.text)
    ShowSavedWave                            0x080056ab   Thumb Code   474  task_gui.o(.text)
    ShowWelcomeScreen                        0x08005885   Thumb Code   106  task_gui.o(.text)
    DrawControlPanel                         0x080058ef   Thumb Code   574  task_gui.o(.text)
    DrawPramPanel                            0x08005b2d   Thumb Code     2  task_gui.o(.text)
    TouchEventDetected                       0x08005b2f   Thumb Code  1756  task_gui.o(.text)
    WaveMode_Init                            0x08006211   Thumb Code    18  task_main.o(.text)
    TaskStackChack                           0x08006223   Thumb Code   112  task_main.o(.text)
    GetFrequence                             0x08006293   Thumb Code    44  task_main.o(.text)
    GetWaveADCValue                          0x080062bf   Thumb Code    34  task_main.o(.text)
    PCtoMCU_Decoding                         0x080062e1   Thumb Code   212  task_main.o(.text)
    ReceiveDataFromPC                        0x080063b5   Thumb Code   578  task_main.o(.text)
    MCUtoPC_Coding                           0x080065f7   Thumb Code     2  task_main.o(.text)
    SendDataToPC                             0x080065f9   Thumb Code   544  task_main.o(.text)
    RTC_Config                               0x08006851   Thumb Code    88  task_rtc.o(.text)
    RTC_NVIC_Config                          0x080068a9   Thumb Code    40  task_rtc.o(.text)
    RTC_Init                                 0x080068d1   Thumb Code    60  task_rtc.o(.text)
    Set_RTC_Time_Manual                      0x0800690d   Thumb Code    48  task_rtc.o(.text)
    Display_RTC_Time                         0x0800693d   Thumb Code   166  task_rtc.o(.text)
    Is_Leap_Year                             0x080069e3   Thumb Code    56  task_rtc.o(.text)
    RTC_Set_Time                             0x08006a1b   Thumb Code   200  task_rtc.o(.text)
    RTC_Get_Week                             0x08006ae3   Thumb Code   126  task_rtc.o(.text)
    RTC_Get_Time                             0x08006b61   Thumb Code   210  task_rtc.o(.text)
    RTC_IRQHandler                           0x08006c33   Thumb Code    70  task_rtc.o(.text)
    OS_TaskStatStkChk                        0x08006cd1   Thumb Code    54  os_core.o(.text)
    OS_TaskStat                              0x08006d07   Thumb Code    88  os_core.o(.text)
    OS_TaskIdle                              0x08006d97   Thumb Code    22  os_core.o(.text)
    OS_MemClr                                0x08006de5   Thumb Code    20  os_core.o(.text)
    OSInit                                   0x08006ed7   Thumb Code    38  os_core.o(.text)
    OSIntEnter                               0x08006efd   Thumb Code    20  os_core.o(.text)
    OSIntExit                                0x08006f29   Thumb Code    80  os_core.o(.text)
    OSSchedLock                              0x08006f79   Thumb Code    38  os_core.o(.text)
    OS_Sched                                 0x08006f9f   Thumb Code    64  os_core.o(.text)
    OSSchedUnlock                            0x08006fdf   Thumb Code    66  os_core.o(.text)
    OSStart                                  0x08007021   Thumb Code    38  os_core.o(.text)
    OSStatInit                               0x08007047   Thumb Code    48  os_core.o(.text)
    OSTimeTick                               0x08007077   Thumb Code   258  os_core.o(.text)
    OSVersion                                0x08007179   Thumb Code     6  os_core.o(.text)
    OS_Dummy                                 0x0800717f   Thumb Code     2  os_core.o(.text)
    OS_EventTaskRemove                       0x08007181   Thumb Code    36  os_core.o(.text)
    OS_EventTaskRdy                          0x080071a5   Thumb Code   100  os_core.o(.text)
    OS_EventTaskWait                         0x08007209   Thumb Code    86  os_core.o(.text)
    OS_EventWaitListInit                     0x0800725f   Thumb Code    20  os_core.o(.text)
    OS_MemCopy                               0x08007273   Thumb Code    22  os_core.o(.text)
    OS_StrLen                                0x08007289   Thumb Code    24  os_core.o(.text)
    OS_TCBInit                               0x080072a1   Thumb Code   284  os_core.o(.text)
    OSMboxAccept                             0x080073cd   Thumb Code    32  os_mbox.o(.text)
    OSMboxCreate                             0x080073ed   Thumb Code    60  os_mbox.o(.text)
    OSMboxDel                                0x08007429   Thumb Code   194  os_mbox.o(.text)
    OSMboxPend                               0x080074eb   Thumb Code   200  os_mbox.o(.text)
    OSMboxPendAbort                          0x080075b3   Thumb Code   116  os_mbox.o(.text)
    OSMboxPost                               0x08007627   Thumb Code    78  os_mbox.o(.text)
    OSMboxPostOpt                            0x08007675   Thumb Code   122  os_mbox.o(.text)
    OSMboxQuery                              0x080076ef   Thumb Code    62  os_mbox.o(.text)
    OSMutexAccept                            0x0800773d   Thumb Code   122  os_mutex.o(.text)
    OSMutexCreate                            0x080077b7   Thumb Code   132  os_mutex.o(.text)
    OSMutexDel                               0x080078a1   Thumb Code   238  os_mutex.o(.text)
    OSMutexPend                              0x0800798f   Thumb Code   486  os_mutex.o(.text)
    OSMutexPost                              0x08007b75   Thumb Code   178  os_mutex.o(.text)
    OSMutexQuery                             0x08007c27   Thumb Code    94  os_mutex.o(.text)
    OSSemAccept                              0x08007c91   Thumb Code    34  os_sem.o(.text)
    OSSemCreate                              0x08007cb3   Thumb Code    60  os_sem.o(.text)
    OSSemDel                                 0x08007cef   Thumb Code   194  os_sem.o(.text)
    OSSemPend                                0x08007db1   Thumb Code   180  os_sem.o(.text)
    OSSemPendAbort                           0x08007e65   Thumb Code   116  os_sem.o(.text)
    OSSemPost                                0x08007ed9   Thumb Code    84  os_sem.o(.text)
    OSSemQuery                               0x08007f2d   Thumb Code    62  os_sem.o(.text)
    OSSemSet                                 0x08007f6b   Thumb Code    56  os_sem.o(.text)
    OSTaskChangePrio                         0x08007fb5   Thumb Code   272  os_task.o(.text)
    OSTaskCreate                             0x080080c5   Thumb Code   136  os_task.o(.text)
    OS_TaskStkClr                            0x0800814d   Thumb Code    30  os_task.o(.text)
    OSTaskCreateExt                          0x0800816b   Thumb Code   158  os_task.o(.text)
    OSTaskDel                                0x08008209   Thumb Code   276  os_task.o(.text)
    OSTaskDelReq                             0x0800831d   Thumb Code    90  os_task.o(.text)
    OSTaskNameGet                            0x08008377   Thumb Code   160  os_task.o(.text)
    OSTaskNameSet                            0x08008417   Thumb Code    88  os_task.o(.text)
    OSTaskResume                             0x0800846f   Thumb Code   150  os_task.o(.text)
    OSTaskStkChk                             0x08008505   Thumb Code   134  os_task.o(.text)
    OSTaskSuspend                            0x0800858b   Thumb Code   138  os_task.o(.text)
    OSTaskQuery                              0x08008615   Thumb Code    74  os_task.o(.text)
    OSTaskRegGet                             0x0800865f   Thumb Code    50  os_task.o(.text)
    OSTaskRegSet                             0x08008691   Thumb Code    54  os_task.o(.text)
    OS_TaskReturn                            0x080086c7   Thumb Code    18  os_task.o(.text)
    OSTimeDly                                0x080086f1   Thumb Code    84  os_time.o(.text)
    OSTimeDlyHMSM                            0x08008745   Thumb Code    88  os_time.o(.text)
    OSTimeDlyResume                          0x0800879d   Thumb Code   166  os_time.o(.text)
    OSTimeGet                                0x08008843   Thumb Code    18  os_time.o(.text)
    OSTimeSet                                0x08008855   Thumb Code    20  os_time.o(.text)
    OSInitHookBegin                          0x08008885   Thumb Code     2  os_cpu_c.o(.text)
    OSInitHookEnd                            0x08008887   Thumb Code     2  os_cpu_c.o(.text)
    OSTaskCreateHook                         0x08008889   Thumb Code     2  os_cpu_c.o(.text)
    OSTaskDelHook                            0x0800888b   Thumb Code     2  os_cpu_c.o(.text)
    OSTaskIdleHook                           0x0800888d   Thumb Code     2  os_cpu_c.o(.text)
    OSTaskStatHook                           0x0800888f   Thumb Code     2  os_cpu_c.o(.text)
    OSTaskStkInit                            0x08008891   Thumb Code   114  os_cpu_c.o(.text)
    OSTaskSwHook                             0x08008903   Thumb Code     2  os_cpu_c.o(.text)
    OSTCBInitHook                            0x08008905   Thumb Code     2  os_cpu_c.o(.text)
    OSTimeTickHook                           0x08008907   Thumb Code     2  os_cpu_c.o(.text)
    OSTaskReturnHook                         0x08008909   Thumb Code     2  os_cpu_c.o(.text)
    OS_CPU_SR_Save                           0x0800890d   Thumb Code     0  os_cpu_a.o(.text)
    OS_CPU_SR_Restore                        0x08008915   Thumb Code     0  os_cpu_a.o(.text)
    OSStartHighRdy                           0x0800891b   Thumb Code     0  os_cpu_a.o(.text)
    OSCtxSw                                  0x0800893b   Thumb Code     0  os_cpu_a.o(.text)
    OSIntCtxSw                               0x08008945   Thumb Code     0  os_cpu_a.o(.text)
    OS_CPU_PendSVHandler                     0x0800894f   Thumb Code     0  os_cpu_a.o(.text)
    GUI_X_GetTime                            0x080089b1   Thumb Code     4  gui_x_ucos.o(.text)
    GUI_X_Delay                              0x080089b5   Thumb Code    16  gui_x_ucos.o(.text)
    GUI_X_ExecIdle                           0x080089c5   Thumb Code     6  gui_x_ucos.o(.text)
    GUI_X_InitOS                             0x080089cb   Thumb Code    22  gui_x_ucos.o(.text)
    GUI_X_Lock                               0x080089e1   Thumb Code    16  gui_x_ucos.o(.text)
    GUI_X_Unlock                             0x080089f1   Thumb Code     8  gui_x_ucos.o(.text)
    GUI_X_GetTaskId                          0x080089f9   Thumb Code    10  gui_x_ucos.o(.text)
    GUI_X_WaitEvent                          0x08008a03   Thumb Code    16  gui_x_ucos.o(.text)
    GUI_X_SignalEvent                        0x08008a13   Thumb Code    10  gui_x_ucos.o(.text)
    GUI_X_Init                               0x08008a1d   Thumb Code    14  gui_x_ucos.o(.text)
    GUI_X_GetKey                             0x08008a3b   Thumb Code    18  gui_x_ucos.o(.text)
    GUI_X_WaitKey                            0x08008a4d   Thumb Code    30  gui_x_ucos.o(.text)
    GUI_X_StoreKey                           0x08008a6b   Thumb Code    10  gui_x_ucos.o(.text)
    GUI_X_Log                                0x08008a75   Thumb Code     2  gui_x_ucos.o(.text)
    GUI_X_Warn                               0x08008a77   Thumb Code     2  gui_x_ucos.o(.text)
    GUI_X_ErrorOut                           0x08008a79   Thumb Code     2  gui_x_ucos.o(.text)
    LCD_L0_Init                              0x08008a85   Thumb Code    10  lcd_gui_interface.o(.text)
    LCD_L0_SetPixelIndex                     0x08008a8f   Thumb Code    10  lcd_gui_interface.o(.text)
    LCD_L0_GetPixelIndex                     0x08008a99   Thumb Code     8  lcd_gui_interface.o(.text)
    LCD_L0_XorPixel                          0x08008aa1   Thumb Code    32  lcd_gui_interface.o(.text)
    LCD_L0_DrawHLine                         0x08008ac1   Thumb Code    22  lcd_gui_interface.o(.text)
    LCD_L0_DrawVLine                         0x08008ad7   Thumb Code    22  lcd_gui_interface.o(.text)
    LCD_L0_FillRect                          0x08008aed   Thumb Code    36  lcd_gui_interface.o(.text)
    DrawBitLine1BPP                          0x08008b11   Thumb Code   660  lcd_gui_interface.o(.text)
    DrawBitLine8BPP                          0x080090b7   Thumb Code   162  lcd_gui_interface.o(.text)
    DrawBitLine16BPP                         0x08009159   Thumb Code   120  lcd_gui_interface.o(.text)
    LCD_L0_DrawBitmap                        0x080091d1   Thumb Code   266  lcd_gui_interface.o(.text)
    LCD_L0_SetLUTEntry                       0x080092db   Thumb Code     2  lcd_gui_interface.o(.text)
    LCD_L0_On                                0x080092dd   Thumb Code     2  lcd_gui_interface.o(.text)
    GUI_sin                                  0x080092e9   Thumb Code    80  gui2dlib.o(.text)
    GUI_cos                                  0x08009339   Thumb Code     6  gui2dlib.o(.text)
    GL_DrawPoint                             0x0800933f   Thumb Code    24  gui2dlib.o(.text)
    GL_DrawLine1                             0x08009357   Thumb Code   210  gui2dlib.o(.text)
    GL_DrawLine                              0x08009429   Thumb Code   258  gui2dlib.o(.text)
    GUI_DrawLine                             0x0800952b   Thumb Code    36  gui2dlib.o(.text)
    GL_DrawLineTo                            0x0800954f   Thumb Code    30  gui2dlib.o(.text)
    GL_MoveTo                                0x0800956d   Thumb Code     8  gui2dlib.o(.text)
    GL_DrawPolygon                           0x08009575   Thumb Code   100  gui2dlib.o(.text)
    GUI_DrawPolygon                          0x080095d9   Thumb Code    36  gui2dlib.o(.text)
    GUI_MoveRel                              0x080095fd   Thumb Code    32  gui2dlib.o(.text)
    GUI_DrawLineRel                          0x0800961d   Thumb Code    44  gui2dlib.o(.text)
    GUI_DrawLineTo                           0x08009649   Thumb Code    44  gui2dlib.o(.text)
    GUI_MoveTo                               0x08009675   Thumb Code    26  gui2dlib.o(.text)
    GUI_DrawRect                             0x0800968f   Thumb Code    64  gui2dlib.o(.text)
    GUI_DrawPoint                            0x080096cf   Thumb Code    26  gui2dlib.o(.text)
    GUI_DispString                           0x08009809   Thumb Code   244  gui_dispstring.o(.text)
    GUI_DispStringAt                         0x08009901   Thumb Code    32  gui_dispstringat.o(.text)
    GUI_DispStringHCenterAt                  0x08009925   Thumb Code    46  gui_dispstringhcenter.o(.text)
    GUI_DrawGraph                            0x08009959   Thumb Code    36  gui_drawgraph.o(.text)
    GUI_DrawHLine                            0x08009a1d   Thumb Code    30  gui_drawhline.o(.text)
    GUI_DrawVLine                            0x08009a3b   Thumb Code    30  gui_drawvline.o(.text)
    GUI_SetBkColor                           0x08009a59   Thumb Code    22  gui_setcolor.o(.text)
    GUI_SetColor                             0x08009a6f   Thumb Code    22  gui_setcolor.o(.text)
    GUI_SetFont                              0x08009a85   Thumb Code    24  gui_setfont.o(.text)
    GUI_SetTextMode                          0x08009aa1   Thumb Code    24  gui_settextmode.o(.text)
    GUI_ClearRect                            0x08009abd   Thumb Code    50  guicore.o(.text)
    GUI_Clear                                0x08009aef   Thumb Code    26  guicore.o(.text)
    GUI_Init                                 0x08009b09   Thumb Code    84  guicore.o(.text)
    GUI_DispDecShift                         0x08009b71   Thumb Code    20  guival.o(.text)
    GUI_DispSDecShift                        0x08009b85   Thumb Code    36  guival.o(.text)
    GUI_DispDecMin                           0x08009ba9   Thumb Code    20  guival.o(.text)
    GUI_DispDecSpace                         0x08009bbd   Thumb Code    72  guival.o(.text)
    GUI_DispSDec                             0x08009c05   Thumb Code     4  guival.o(.text)
    GUI_DispDec                              0x08009c09   Thumb Code     4  guival.o(.text)
    GUI_DispDecAt                            0x08009c0d   Thumb Code    32  guival.o(.text)
    GUI_DispFloatFix                         0x08009c7f   Thumb Code     4  guivalf.o(.text)
    GUI_DispFloatMin                         0x08009c83   Thumb Code    56  guivalf.o(.text)
    GUI_DispFloat                            0x08009cbb   Thumb Code    50  guivalf.o(.text)
    GUI_DispSFloatFix                        0x08009ced   Thumb Code     4  guivalf.o(.text)
    GUI_DispSFloatMin                        0x08009cf1   Thumb Code    66  guivalf.o(.text)
    GUI_MEMDEV_Draw                          0x08009d39   Thumb Code   232  guidev_banding.o(.text)
    GUI_AddDecMin                            0x08009e2d   Thumb Code    26  gui_adddecmin.o(.text)
    GUI_Long2Len                             0x08009e49   Thumb Code    40  gui_adddecshift.o(.text)
    GUI_AddSign                              0x08009e71   Thumb Code    30  gui_adddecshift.o(.text)
    GUI_AddDecShift                          0x08009e8f   Thumb Code   108  gui_adddecshift.o(.text)
    GL_FillPolygon                           0x08009f33   Thumb Code   416  gui_fillpolygon.o(.text)
    GUI_FillPolygon                          0x0800a0d3   Thumb Code    36  gui_fillpolygon.o(.text)
    GUI_GotoY                                0x0800a105   Thumb Code    22  gui_goto.o(.text)
    GUI_GotoX                                0x0800a11b   Thumb Code    22  gui_goto.o(.text)
    GUI_GotoXY                               0x0800a131   Thumb Code    26  gui_goto.o(.text)
    GUI_SetTextAlign                         0x0800a151   Thumb Code    24  gui_settextalign.o(.text)
    GUI_UC_GetCharSize                       0x0800a16d   Thumb Code    28  gui_uc.o(.text)
    GUI_UC_GetCharCode                       0x0800a189   Thumb Code    28  gui_uc.o(.text)
    GUI_UC_Encode                            0x0800a1a5   Thumb Code    32  gui_uc.o(.text)
    GUI_UC__CalcSizeOfChar                   0x0800a1c5   Thumb Code     8  gui_uc.o(.text)
    GUI_UC__GetCharCodeInc                   0x0800a1cd   Thumb Code    38  gui_uc.o(.text)
    GUI_UC__NumChars2NumBytes                0x0800a1f3   Thumb Code    34  gui_uc.o(.text)
    GUI_UC__NumBytes2NumChars                0x0800a215   Thumb Code    40  gui_uc.o(.text)
    GUI_UC_SetEncodeNone                     0x0800a253   Thumb Code    20  gui_uc_encodenone.o(.text)
    GUI_GetFontDistY                         0x0800a271   Thumb Code    20  guichar.o(.text)
    GUI_DispNextLine                         0x0800a285   Thumb Code    30  guichar.o(.text)
    GL_DispChar                              0x0800a2a3   Thumb Code    52  guichar.o(.text)
    GUI_GetYAdjust                           0x0800a2d7   Thumb Code    52  guichar.o(.text)
    GUI_GetCharDistX                         0x0800a30b   Thumb Code    28  guichar.o(.text)
    GUI__GetLineNumChars                     0x0800a377   Thumb Code    48  guicharline.o(.text)
    GUI__GetLineDistX                        0x0800a3a7   Thumb Code    46  guicharline.o(.text)
    GUI__DispLine                            0x0800a3d5   Thumb Code    40  guicharline.o(.text)
    GUIMONO_DispChar                         0x0800a409   Thumb Code   284  guicharm.o(.text)
    GUIMONO_GetCharDistX                     0x0800a525   Thumb Code    10  guicharm.o(.text)
    GUIMONO_GetFontInfo                      0x0800a52f   Thumb Code     6  guicharm.o(.text)
    GUIMONO_IsInFont                         0x0800a535   Thumb Code    38  guicharm.o(.text)
    GL_DrawCircle                            0x0800a5cd   Thumb Code   100  guicirc.o(.text)
    GUI_DrawCircle                           0x0800a631   Thumb Code    30  guicirc.o(.text)
    GL_FillCircle                            0x0800a64f   Thumb Code   144  guicirc.o(.text)
    GUI_FillCircle                           0x0800a6df   Thumb Code    30  guicirc.o(.text)
    GL_FillEllipse                           0x0800a6fd   Thumb Code   104  guicirc.o(.text)
    GUI_FillEllipse                          0x0800a765   Thumb Code    36  guicirc.o(.text)
    GL_DrawEllipse                           0x0800a789   Thumb Code   166  guicirc.o(.text)
    GUI_DrawEllipse                          0x0800a82f   Thumb Code    36  guicirc.o(.text)
    GUI_Unlock                               0x0800a855   Thumb Code    16  guitask.o(.text)
    GUI_Lock                                 0x0800a865   Thumb Code   144  guitask.o(.text)
    GUITASK_Init                             0x0800a8f5   Thumb Code    12  guitask.o(.text)
    GUITASK_CopyContext                      0x0800a901   Thumb Code    46  guitask.o(.text)
    LCD_SetColorIndex                        0x0800a93d   Thumb Code    18  lcd.o(.text)
    LCD_SetBkColorIndex                      0x0800a94f   Thumb Code    18  lcd.o(.text)
    LCD_SetDrawMode                          0x0800a961   Thumb Code    28  lcd.o(.text)
    LCD_DrawPixel                            0x0800a97d   Thumb Code    64  lcd.o(.text)
    LCD_DrawHLine                            0x0800a9bd   Thumb Code    54  lcd.o(.text)
    LCD_FillRect                             0x0800a9f3   Thumb Code    64  lcd.o(.text)
    LCD_DrawBitmap                           0x0800aa33   Thumb Code   478  lcd.o(.text)
    LCD_SetClipRectMax                       0x0800ac11   Thumb Code    10  lcd.o(.text)
    LCD_Init                                 0x0800ac1b   Thumb Code    50  lcd.o(.text)
    LCD_Color2Index                          0x0800ac4d   Thumb Code     8  lcd.o(.text)
    LCD_Index2Color                          0x0800ac55   Thumb Code     8  lcd.o(.text)
    LCD_SetBkColor                           0x0800ac5d   Thumb Code    24  lcd.o(.text)
    LCD_SetColor                             0x0800ac75   Thumb Code    24  lcd.o(.text)
    LCD_DrawVLine                            0x0800aca9   Thumb Code    56  lcd_drawvline.o(.text)
    LCD_L0_Color2Index                       0x0800ace5   Thumb Code     4  lcd_l0_generic.o(.text)
    LCD_L0_Index2Color                       0x0800ace9   Thumb Code     4  lcd_l0_generic.o(.text)
    LCD_L0_GetIndexMask                      0x0800aced   Thumb Code     4  lcd_l0_generic.o(.text)
    LCD_L0_GetRect                           0x0800acf1   Thumb Code    20  lcd_l0_generic.o(.text)
    LCD_GetXSize                             0x0800ad05   Thumb Code     6  lcdinfo0.o(.text)
    LCD_GetYSize                             0x0800ad0b   Thumb Code     6  lcdinfo0.o(.text)
    LCD_GetVXSize                            0x0800ad11   Thumb Code     6  lcdinfo0.o(.text)
    LCD_GetVYSize                            0x0800ad17   Thumb Code     6  lcdinfo0.o(.text)
    LCD_GetBitsPerPixel                      0x0800ad1d   Thumb Code     4  lcdinfo0.o(.text)
    LCD_GetNumColors                         0x0800ad21   Thumb Code     6  lcdinfo0.o(.text)
    LCD_GetYMag                              0x0800ad27   Thumb Code     4  lcdinfo0.o(.text)
    LCD_GetXMag                              0x0800ad2b   Thumb Code     4  lcdinfo0.o(.text)
    LCD_GetFixedPalette                      0x0800ad2f   Thumb Code     6  lcdinfo0.o(.text)
    GUI_MEMDEV__GetRect                      0x0800ad35   Thumb Code    44  guidev.o(.text)
    GUI_MEMDEV__Color2Index                  0x0800ad61   Thumb Code    24  guidev.o(.text)
    GUI_MEMDEV__Index2Color                  0x0800ad79   Thumb Code    24  guidev.o(.text)
    GUI_MEMDEV__GetIndexMask                 0x0800ad91   Thumb Code    20  guidev.o(.text)
    GUI_MEMDEV_Delete                        0x0800ada5   Thumb Code    54  guidev.o(.text)
    GUI_MEMDEV__CreateFixed                  0x0800addb   Thumb Code   196  guidev.o(.text)
    GUI_MEMDEV_CreateEx                      0x0800ae9f   Thumb Code    82  guidev.o(.text)
    GUI_MEMDEV_Create                        0x0800aef1   Thumb Code    16  guidev.o(.text)
    GUI_MEMDEV_Select                        0x0800af01   Thumb Code    64  guidev.o(.text)
    GUI_MEMDEV__WriteToActiveAt              0x0800af41   Thumb Code   270  guidev.o(.text)
    GUI_MEMDEV_CopyToLCDAt                   0x0800b04f   Thumb Code    80  guidev.o(.text)
    GUI_MEMDEV_CopyToLCD                     0x0800b09f   Thumb Code     6  guidev.o(.text)
    GUI_MEMDEV_Clear                         0x0800b0b1   Thumb Code    52  guidev_clear.o(.text)
    GUI_MEMDEV_GetYSize                      0x0800b0e9   Thumb Code    38  guidev_getysize.o(.text)
    GUI_MEMDEV_ReduceYSize                   0x0800b115   Thumb Code    48  guidev_reduceysize.o(.text)
    GUI_MEMDEV_SetOrg                        0x0800b149   Thumb Code    84  guidev_setorg.o(.text)
    LCD_Color2Index_M565                     0x0800b1a1   Thumb Code    22  lcdpm565.o(.text)
    LCD_GetIndexMask_M565                    0x0800b1b7   Thumb Code     6  lcdpm565.o(.text)
    GUI_ALLOC_AllocZero                      0x0800b1bd   Thumb Code    38  gui_alloc_alloczero.o(.text)
    GUI_RectsIntersect                       0x0800b1e3   Thumb Code    56  gui_rectsintersect.o(.text)
    GUI_SelectLCD                            0x0800b21b   Thumb Code    22  gui_selectlcd.o(.text)
    GUI_ALLOC_Init                           0x0800b2ad   Thumb Code    40  guialloc.o(.text)
    GUI_ALLOC_AllocNoInit                    0x0800b3a7   Thumb Code    30  guialloc.o(.text)
    GUI_ALLOC_h2p                            0x0800b3c5   Thumb Code    20  guialloc.o(.text)
    GUI_ALLOC_GetNumFreeBytes                0x0800b3d9   Thumb Code    14  guialloc.o(.text)
    GUI_ALLOC_GetMaxSize                     0x0800b3e7   Thumb Code    98  guialloc.o(.text)
    GUI_ALLOC_GetSize                        0x0800b449   Thumb Code    20  guialloc.o(.text)
    GUI_ALLOC_Free                           0x0800b45d   Thumb Code    26  guialloc.o(.text)
    GUI_ALLOC_FreePtr                        0x0800b477   Thumb Code    28  guialloc.o(.text)
    LCD_GetpPalConvTableUncached             0x0800b555   Thumb Code    54  lcdcolor.o(.text)
    LCD_GetpPalConvTable                     0x0800b58b   Thumb Code     2  lcdcolor.o(.text)
    LCD_InitLUT                              0x0800b58d   Thumb Code     2  lcdcolor.o(.text)
    LCD_Index2Color_M565                     0x0800b595   Thumb Code    52  lcdpm565_index2color.o(.text)
    GUI_USAGE_Select                         0x0800bd0d   Thumb Code    28  guidev_usage.o(.text)
    GUI_USAGE_DecUseCnt                      0x0800bd29   Thumb Code    38  guidev_usage.o(.text)
    GUI_USAGE_AddRect                        0x0800bd4f   Thumb Code    38  guidev_usage.o(.text)
    GUI_USAGE_BM_Create                      0x0800bedf   Thumb Code    78  guidev_usagebm.o(.text)
    GUI__memset                              0x0800bf31   Thumb Code    74  gui__memset.o(.text)
    GUI__memset16                            0x0800bf7b   Thumb Code    58  gui__memset16.o(.text)
    LCD_SelectLCD                            0x0800bfb5   Thumb Code    20  lcd_selectlcd.o(.text)
    LCD_UpdateColorIndices                   0x0800bfd1   Thumb Code    28  lcd_updatecolorindices.o(.text)
    ___aeabi_memcpy8$move                    0x0800bff1   Thumb Code     0  memmovea.o(.text)
    __aeabi_memcpy                           0x0800bff1   Thumb Code    64  memmovea.o(.text)
    __aeabi_memcpy4                          0x0800bff1   Thumb Code     0  memmovea.o(.text)
    __aeabi_memmove                          0x0800bff1   Thumb Code     0  memmovea.o(.text)
    __aeabi_memmove4                         0x0800bff1   Thumb Code     0  memmovea.o(.text)
    __aeabi_memmove8                         0x0800bff1   Thumb Code     0  memmovea.o(.text)
    __aeabi_memset                           0x0800c031   Thumb Code    14  memseta.o(.text)
    __aeabi_memset4                          0x0800c031   Thumb Code     0  memseta.o(.text)
    __aeabi_memset8                          0x0800c031   Thumb Code     0  memseta.o(.text)
    __aeabi_memclr                           0x0800c03f   Thumb Code     4  memseta.o(.text)
    __aeabi_memclr4                          0x0800c03f   Thumb Code     0  memseta.o(.text)
    __aeabi_memclr8                          0x0800c03f   Thumb Code     0  memseta.o(.text)
    _memset$wrapper                          0x0800c043   Thumb Code    18  memseta.o(.text)
    atoi                                     0x0800c055   Thumb Code    26  atoi.o(.text)
    __aeabi_fadd                             0x0800c06f   Thumb Code   164  fadd.o(.text)
    __aeabi_fsub                             0x0800c113   Thumb Code     6  fadd.o(.text)
    __aeabi_frsub                            0x0800c119   Thumb Code     6  fadd.o(.text)
    __aeabi_fmul                             0x0800c11f   Thumb Code   100  fmul.o(.text)
    __aeabi_fdiv                             0x0800c183   Thumb Code   124  fdiv.o(.text)
    __ARM_scalbnf                            0x0800c1ff   Thumb Code    24  fscalb.o(.text)
    scalbnf                                  0x0800c1ff   Thumb Code     0  fscalb.o(.text)
    __aeabi_dadd                             0x0800c217   Thumb Code   322  dadd.o(.text)
    __aeabi_dsub                             0x0800c359   Thumb Code     6  dadd.o(.text)
    __aeabi_drsub                            0x0800c35f   Thumb Code     6  dadd.o(.text)
    __aeabi_dmul                             0x0800c365   Thumb Code   228  dmul.o(.text)
    __aeabi_ddiv                             0x0800c449   Thumb Code   222  ddiv.o(.text)
    __ARM_scalbn                             0x0800c527   Thumb Code    46  dscalb.o(.text)
    scalbn                                   0x0800c527   Thumb Code     0  dscalb.o(.text)
    __aeabi_ui2f                             0x0800c555   Thumb Code    10  ffltui.o(.text)
    __aeabi_i2d                              0x0800c55f   Thumb Code    34  dflti.o(.text)
    __aeabi_ui2d                             0x0800c581   Thumb Code    26  dfltui.o(.text)
    __aeabi_f2iz                             0x0800c59b   Thumb Code    50  ffixi.o(.text)
    __aeabi_f2uiz                            0x0800c5cd   Thumb Code    40  ffixui.o(.text)
    __aeabi_d2uiz                            0x0800c5f5   Thumb Code    50  dfixui.o(.text)
    __aeabi_f2d                              0x0800c627   Thumb Code    38  f2d.o(.text)
    __aeabi_d2f                              0x0800c64d   Thumb Code    56  d2f.o(.text)
    __aeabi_cfcmpeq                          0x0800c685   Thumb Code     0  cfcmple.o(.text)
    __aeabi_cfcmple                          0x0800c685   Thumb Code    20  cfcmple.o(.text)
    __aeabi_cfrcmple                         0x0800c699   Thumb Code    20  cfrcmple.o(.text)
    __aeabi_uidiv                            0x0800c6ad   Thumb Code     0  uidiv.o(.text)
    __aeabi_uidivmod                         0x0800c6ad   Thumb Code    44  uidiv.o(.text)
    __aeabi_uldivmod                         0x0800c6d9   Thumb Code    98  uldiv.o(.text)
    __aeabi_llsl                             0x0800c73b   Thumb Code    30  llshl.o(.text)
    _ll_shift_l                              0x0800c73b   Thumb Code     0  llshl.o(.text)
    __aeabi_llsr                             0x0800c759   Thumb Code    32  llushr.o(.text)
    _ll_ushift_r                             0x0800c759   Thumb Code     0  llushr.o(.text)
    __aeabi_lasr                             0x0800c779   Thumb Code    36  llsshr.o(.text)
    _ll_sshift_r                             0x0800c779   Thumb Code     0  llsshr.o(.text)
    strtol                                   0x0800c79d   Thumb Code   112  strtol.o(.text)
    __I$use$fp                               0x0800c80d   Thumb Code     0  iusefp.o(.text)
    _float_round                             0x0800c80d   Thumb Code    18  fepilogue.o(.text)
    _float_epilogue                          0x0800c81f   Thumb Code    92  fepilogue.o(.text)
    _double_round                            0x0800c87b   Thumb Code    26  depilogue.o(.text)
    _double_epilogue                         0x0800c895   Thumb Code   156  depilogue.o(.text)
    __aeabi_d2ulz                            0x0800c931   Thumb Code    48  dfixul.o(.text)
    __aeabi_cdrcmple                         0x0800c961   Thumb Code    38  cdrcmple.o(.text)
    __scatterload                            0x0800c989   Thumb Code    28  init.o(.text)
    __scatterload_rt2                        0x0800c989   Thumb Code     0  init.o(.text)
    __rt_ctype_table                         0x0800c9ad   Thumb Code     4  ctype_o.o(.text)
    _strtoul                                 0x0800c9b5   Thumb Code   158  _strtoul.o(.text)
    __aeabi_d2iz                             0x0800ca53   Thumb Code    62  dfixi.o(.text)
    _chval                                   0x0800ca91   Thumb Code    28  _chval.o(.text)
    __0printf                                0x0800caad   Thumb Code    22  printfa.o(i.__0printf)
    __1printf                                0x0800caad   Thumb Code     0  printfa.o(i.__0printf)
    __2printf                                0x0800caad   Thumb Code     0  printfa.o(i.__0printf)
    __c89printf                              0x0800caad   Thumb Code     0  printfa.o(i.__0printf)
    printf                                   0x0800caad   Thumb Code     0  printfa.o(i.__0printf)
    __0sprintf                               0x0800cacd   Thumb Code    34  printfa.o(i.__0sprintf)
    __1sprintf                               0x0800cacd   Thumb Code     0  printfa.o(i.__0sprintf)
    __2sprintf                               0x0800cacd   Thumb Code     0  printfa.o(i.__0sprintf)
    __c89sprintf                             0x0800cacd   Thumb Code     0  printfa.o(i.__0sprintf)
    sprintf                                  0x0800cacd   Thumb Code     0  printfa.o(i.__0sprintf)
    __ARM_fpclassify                         0x0800caf5   Thumb Code    40  fpclassify.o(i.__ARM_fpclassify)
    __aeabi_errno_addr                       0x0800cb1d   Thumb Code     4  errno.o(i.__aeabi_errno_addr)
    __rt_errno_addr                          0x0800cb1d   Thumb Code     0  errno.o(i.__aeabi_errno_addr)
    __ieee754_rem_pio2                       0x0800cb25   Thumb Code   830  rred.o(i.__ieee754_rem_pio2)
    __kernel_cos                             0x0800cead   Thumb Code   230  cos_i.o(i.__kernel_cos)
    __kernel_poly                            0x0800cfa9   Thumb Code   170  poly.o(i.__kernel_poly)
    __kernel_sin                             0x0800d055   Thumb Code   224  sin_i.o(i.__kernel_sin)
    __mathlib_dbl_underflow                  0x0800d141   Thumb Code    10  dunder.o(i.__mathlib_dbl_underflow)
    __scatterload_copy                       0x0800d151   Thumb Code    14  handlers.o(i.__scatterload_copy)
    __scatterload_null                       0x0800d15f   Thumb Code     2  handlers.o(i.__scatterload_null)
    __scatterload_zeroinit                   0x0800d161   Thumb Code    14  handlers.o(i.__scatterload_zeroinit)
    __set_errno                              0x0800d171   Thumb Code     6  errno.o(i.__set_errno)
    floor                                    0x0800da19   Thumb Code   204  floor.o(i.floor)
    sin                                      0x0800daf5   Thumb Code   166  sin.o(i.sin)
    SineWaveTab                              0x0800dba4   Data          64  dac v2.0.o(.constdata)
    TriangleWaveTab                          0x0800dbe4   Data          64  dac v2.0.o(.constdata)
    SawtoothWaveTab                          0x0800dc24   Data          64  dac v2.0.o(.constdata)
    ASCII_8x16                               0x0800dc64   Data        1536  tft_api.o(.constdata)
    table_week                               0x0800e26c   Data          12  task_rtc.o(.constdata)
    mon_table                                0x0800e278   Data          12  task_rtc.o(.constdata)
    OSUnMapTbl                               0x0800e284   Data         256  os_core.o(.constdata)
    aTan                                     0x0800e3a6   Data          34  gui2dlib.o(.constdata)
    GUI_acFont6x8                            0x0800e3c8   Data        1304  f6x8.o(.constdata)
    GUI_F6x8_TL8859_1                        0x0800e8e0   Data         448  f6x8.o(.constdata)
    GUI_F6x8_TI8859_1                        0x0800eaa0   Data           8  f6x8.o(.constdata)
    GUI_F6x8_Mono                            0x0800eaa8   Data          20  f6x8.o(.constdata)
    GUI_Font6x8                              0x0800eabc   Data          32  f6x8.o(.constdata)
    acFont8x16                               0x0800eadc   Data        2608  f8x16.o(.constdata)
    TransList8x16                            0x0800f50c   Data         448  f8x16.o(.constdata)
    TransInfo8x16                            0x0800f6cc   Data           8  f8x16.o(.constdata)
    FontMono8x16                             0x0800f6d4   Data          20  f8x16.o(.constdata)
    GUI_Font8x16                             0x0800f6e8   Data          32  f8x16.o(.constdata)
    GUI_Pow10                                0x0800f708   Data          40  gui_adddecshift.o(.constdata)
    GUI__API_TableNone                       0x0800f730   Data          16  gui_uc_encodenone.o(.constdata)
    LCD_L0_APIList                           0x0800f740   Data          64  lcd_api.o(.constdata)
    GUI_MEMDEV__APIList16                    0x0800f7a0   Data          64  guidev_16.o(.constdata)
    LCD_aMirror                              0x0800f7f8   Data         256  lcd_mirror.o(.constdata)
    __ctype_table                            0x0800fa18   Data         129  ctype_o.o(.constdata)
    Region$$Table$$Base                      0x0800faa0   Number         0  anon$$obj.o(Region$$Table)
    Region$$Table$$Limit                     0x0800fac0   Number         0  anon$$obj.o(Region$$Table)
    LCD_Buffer_MUTEX                         0x20000000   Data           4  main.o(.data)
    USART_Buffer_MUTEX                       0x20000004   Data           4  main.o(.data)
    SDtoRAM_Buffer_MUTEX                     0x20000008   Data           4  main.o(.data)
    reload                                   0x20000010   Data           4  delay v2.0.o(.data)
    InterruptTimes                           0x20000014   Data           1  exti.o(.data)
    EXTI_IO_Init                             0x20000018   Data           8  exti.o(.data)
    IntFullTime                              0x20000020   Data           4  oscilloscope.o(.data)
    HPW                                      0x20000024   Data           1  tft_drive.o(.data)
    VPW                                      0x20000025   Data           1  tft_drive.o(.data)
    HDP                                      0x20000028   Data           4  tft_drive.o(.data)
    VDP                                      0x2000002c   Data           4  tft_drive.o(.data)
    HT                                       0x20000030   Data           4  tft_drive.o(.data)
    HPS                                      0x20000034   Data           4  tft_drive.o(.data)
    LPS                                      0x20000038   Data           4  tft_drive.o(.data)
    VT                                       0x2000003c   Data           4  tft_drive.o(.data)
    VPS                                      0x20000040   Data           4  tft_drive.o(.data)
    FPS                                      0x20000044   Data           4  tft_drive.o(.data)
    SystemCoreClock                          0x2000005c   Data           4  system_stm32f10x.o(.data)
    AHBPrescTable                            0x20000060   Data          16  system_stm32f10x.o(.data)
    TrackLine_Switch                         0x20000070   Data           1  task_gui.o(.data)
    PramPanel_Switch                         0x20000071   Data           1  task_gui.o(.data)
    TrackLine_VppMax                         0x20000072   Data           1  task_gui.o(.data)
    TrackLine_VppMin                         0x20000073   Data           1  task_gui.o(.data)
    ZBX                                      0x20000074   Data           2  task_gui.o(.data)
    ZBY                                      0x20000076   Data           2  task_gui.o(.data)
    TrackLine_PriodStart                     0x20000078   Data           2  task_gui.o(.data)
    TrackLine_PriodEnd                       0x2000007a   Data           2  task_gui.o(.data)
    Tpx                                      0x2000007c   Data           2  task_gui.o(.data)
    Tpy                                      0x2000007e   Data           2  task_gui.o(.data)
    OSCPUUsage                               0x20000084   Data           1  os_core.o(.data)
    OSStatRdy                                0x20000085   Data           1  os_core.o(.data)
    OSIntNesting                             0x20000086   Data           1  os_core.o(.data)
    OSLockNesting                            0x20000087   Data           1  os_core.o(.data)
    OSPrioCur                                0x20000088   Data           1  os_core.o(.data)
    OSPrioHighRdy                            0x20000089   Data           1  os_core.o(.data)
    OSRdyGrp                                 0x2000008a   Data           1  os_core.o(.data)
    OSRunning                                0x2000008b   Data           1  os_core.o(.data)
    OSTaskCtr                                0x2000008c   Data           1  os_core.o(.data)
    OSTickStepState                          0x2000008d   Data           1  os_core.o(.data)
    OSCtxSwCtr                               0x20000090   Data           4  os_core.o(.data)
    OSEventFreeList                          0x20000094   Data           4  os_core.o(.data)
    OSIdleCtrMax                             0x20000098   Data           4  os_core.o(.data)
    OSIdleCtrRun                             0x2000009c   Data           4  os_core.o(.data)
    OSIdleCtr                                0x200000a0   Data           4  os_core.o(.data)
    OSTCBCur                                 0x200000a4   Data           4  os_core.o(.data)
    OSTCBFreeList                            0x200000a8   Data           4  os_core.o(.data)
    OSTCBHighRdy                             0x200000ac   Data           4  os_core.o(.data)
    OSTCBList                                0x200000b0   Data           4  os_core.o(.data)
    OSTime                                   0x200000b4   Data           4  os_core.o(.data)
    OSRdyTbl                                 0x200000b8   Data           8  os_core.o(.data)
    GUI_DecChar                              0x200000d4   Data           1  guicore.o(.data)
    GUI_pfDispCharStyle                      0x200000d8   Data           4  guicore.o(.data)
    GUI_pLCD_APIList                         0x200000dc   Data           4  guicore.o(.data)
    LCD_aAPI                                 0x200000f0   Data           4  lcd_api.o(.data)
    __stdout                                 0x200000f8   Data           4  stdout.o(.data)
    Task_Start_Stk                           0x20000100   Data         256  main.o(.bss)
    USART_Buffer                             0x20000200   Data          16  usart1.o(.bss)
    ADCConvertedValue                        0x20000210   Data         800  adc.o(.bss)
    AnyWaveTab                               0x20000530   Data          64  dac v2.0.o(.bss)
    LCD_Buffer                               0x20000570   Data          64  tft_api.o(.bss)
    Task_TouchScreen_Stk                     0x200005b0   Data        1024  app.o(.bss)
    Task_Main_Stk                            0x200009b0   Data        8192  app.o(.bss)
    Task_RTC_Stk                             0x200029b0   Data        2048  app.o(.bss)
    Task_SD_Stk                              0x200031b0   Data        2048  app.o(.bss)
    Task_GUI_Stk                             0x200039b0   Data        4096  app.o(.bss)
    ADCVlaue2ScreenValue                     0x200049b0   Data         800  task_gui.o(.bss)
    WaveInfo                                 0x20004cd0   Data          36  task_main.o(.bss)
    WaveCtrl                                 0x20004cf4   Data          20  task_main.o(.bss)
    FG_WaveInfo                              0x20004d08   Data          12  task_main.o(.bss)
    calendar                                 0x20004d14   Data          10  task_rtc.o(.bss)
    OSEventTbl                               0x20004d20   Data         100  os_core.o(.bss)
    OSTaskStatStk                            0x20004d84   Data         512  os_core.o(.bss)
    OSTaskIdleStk                            0x20004f84   Data         512  os_core.o(.bss)
    OSTCBPrioTbl                             0x20005184   Data         256  os_core.o(.bss)
    OSTCBTbl                                 0x20005284   Data         912  os_core.o(.bss)
    GUI_Context                              0x20005614   Data          72  guicore.o(.bss)
    GUI_Heap                                 0x200057a4   Data        5000  guialloc.o(.bss)
    GUI_ALLOC                                0x20006ee0   Data          20  guialloc.o(.bss)
    LCD__aConvTable                          0x20006ef4   Data         512  lcdcolor.o(.bss)
    __initial_sp                             0x200074f8   Data           0  startup_stm32f10x_hd.o(STACK)



==============================================================================

Memory Map of the image

  Image Entry point : 0x08000131

  Load Region LR_IROM1 (Base: 0x08000000, Size: 0x0000fbc0, Max: 0x00080000, ABSOLUTE)

    Execution Region ER_IROM1 (Base: 0x08000000, Size: 0x0000fac0, Max: 0x00080000, ABSOLUTE)

    Base Addr    Size         Type   Attr      Idx    E Section Name        Object

    0x08000000   0x00000130   Data   RO            3    RESET               startup_stm32f10x_hd.o
    0x08000130   0x00000000   Code   RO         1876  * .ARM.Collect$$$$00000000  mc_w.l(entry.o)
    0x08000130   0x00000004   Code   RO         2202    .ARM.Collect$$$$00000001  mc_w.l(entry2.o)
    0x08000134   0x00000004   Code   RO         2205    .ARM.Collect$$$$00000004  mc_w.l(entry5.o)
    0x08000138   0x00000000   Code   RO         2207    .ARM.Collect$$$$00000008  mc_w.l(entry7b.o)
    0x08000138   0x00000000   Code   RO         2209    .ARM.Collect$$$$0000000A  mc_w.l(entry8b.o)
    0x08000138   0x00000008   Code   RO         2210    .ARM.Collect$$$$0000000B  mc_w.l(entry9a.o)
    0x08000140   0x00000000   Code   RO         2212    .ARM.Collect$$$$0000000D  mc_w.l(entry10a.o)
    0x08000140   0x00000000   Code   RO         2214    .ARM.Collect$$$$0000000F  mc_w.l(entry11a.o)
    0x08000140   0x00000004   Code   RO         2203    .ARM.Collect$$$$00002712  mc_w.l(entry2.o)
    0x08000144   0x00000024   Code   RO            4    .text               startup_stm32f10x_hd.o
    0x08000168   0x000000ac   Code   RO           10    .text               main.o
    0x08000214   0x00000010   Code   RO          184    .text               stm32f10x_it.o
    0x08000224   0x0000031c   Code   RO          199    .text               usart1.o
    0x08000540   0x000000d4   Code   RO          225    .text               misc.o
    0x08000614   0x000000d0   Code   RO          237    .text               delay v2.0.o
    0x080006e4   0x0000011c   Code   RO          252    .text               pincfg.o
    0x08000800   0x00000214   Code   RO          264    .text               adc.o
    0x08000a14   0x00000134   Code   RO          280    .text               dac v2.0.o
    0x08000b48   0x000001a4   Code   RO          298    .text               exti.o
    0x08000cec   0x0000010c   Code   RO          317    .text               indkey.o
    0x08000df8   0x00000034   Code   RO          330    .text               iwdg.o
    0x08000e2c   0x00000620   Code   RO          342    .text               oscilloscope.o
    0x0800144c   0x000000ec   Code   RO          362    .text               timer.o
    0x08001538   0x00000830   Code   RO          375    .text               tft_api.o
    0x08001d68   0x000002e0   Code   RO          398    .text               tft_drive.o
    0x08002048   0x0000032c   Code   RO          413    .text               tsc2046.o
    0x08002374   0x000002c0   Code   RO          428    .text               stm32f10x_gpio.o
    0x08002634   0x00000314   Code   RO          440    .text               stm32f10x_rcc.o
    0x08002948   0x000003b4   Code   RO          454    .text               stm32f10x_usart.o
    0x08002cfc   0x00000516   Code   RO          466    .text               stm32f10x_fsmc.o
    0x08003212   0x00000002   PAD
    0x08003214   0x000003c8   Code   RO          478    .text               stm32f10x_adc.o
    0x080035dc   0x000000ac   Code   RO          490    .text               stm32f10x_bkp.o
    0x08003688   0x0000014c   Code   RO          502    .text               stm32f10x_dac.o
    0x080037d4   0x00000218   Code   RO          514    .text               stm32f10x_dma.o
    0x080039ec   0x00000104   Code   RO          526    .text               stm32f10x_exti.o
    0x08003af0   0x0000003c   Code   RO          553    .text               stm32f10x_iwdg.o
    0x08003b2c   0x000000b0   Code   RO          565    .text               stm32f10x_pwr.o
    0x08003bdc   0x0000011c   Code   RO          577    .text               stm32f10x_rtc.o
    0x08003cf8   0x00000c8e   Code   RO          589    .text               stm32f10x_tim.o
    0x08004986   0x00000002   PAD
    0x08004988   0x000002dc   Code   RO          601    .text               stm32f10x_spi.o
    0x08004c64   0x0000017c   Code   RO          623    .text               system_stm32f10x.o
    0x08004de0   0x000001c0   Code   RO          657    .text               app.o
    0x08004fa0   0x00001270   Code   RO          718    .text               task_gui.o
    0x08006210   0x00000640   Code   RO          747    .text               task_main.o
    0x08006850   0x00000480   Code   RO          763    .text               task_rtc.o
    0x08006cd0   0x000006fc   Code   RO          800    .text               os_core.o
    0x080073cc   0x00000370   Code   RO          826    .text               os_mbox.o
    0x0800773c   0x00000554   Code   RO          844    .text               os_mutex.o
    0x08007c90   0x00000324   Code   RO          862    .text               os_sem.o
    0x08007fb4   0x0000073c   Code   RO          874    .text               os_task.o
    0x080086f0   0x00000194   Code   RO          886    .text               os_time.o
    0x08008884   0x00000086   Code   RO          904    .text               os_cpu_c.o
    0x0800890a   0x00000002   PAD
    0x0800890c   0x000000a4   Code   RO          932    .text               os_cpu_a.o
    0x080089b0   0x000000d4   Code   RO          955    .text               gui_x_ucos.o
    0x08008a84   0x00000864   Code   RO          997    .text               lcd_gui_interface.o
    0x080092e8   0x00000520   Code   RO         1009    .text               uCGUI_Lib.lib(gui2dlib.o)
    0x08009808   0x000000f8   Code   RO         1063    .text               uCGUI_Lib.lib(gui_dispstring.o)
    0x08009900   0x00000024   Code   RO         1079    .text               uCGUI_Lib.lib(gui_dispstringat.o)
    0x08009924   0x00000034   Code   RO         1091    .text               uCGUI_Lib.lib(gui_dispstringhcenter.o)
    0x08009958   0x000000c4   Code   RO         1103    .text               uCGUI_Lib.lib(gui_drawgraph.o)
    0x08009a1c   0x0000001e   Code   RO         1115    .text               uCGUI_Lib.lib(gui_drawhline.o)
    0x08009a3a   0x0000001e   Code   RO         1127    .text               uCGUI_Lib.lib(gui_drawvline.o)
    0x08009a58   0x0000002c   Code   RO         1139    .text               uCGUI_Lib.lib(gui_setcolor.o)
    0x08009a84   0x0000001c   Code   RO         1151    .text               uCGUI_Lib.lib(gui_setfont.o)
    0x08009aa0   0x0000001c   Code   RO         1163    .text               uCGUI_Lib.lib(gui_settextmode.o)
    0x08009abc   0x000000b4   Code   RO         1175    .text               uCGUI_Lib.lib(guicore.o)
    0x08009b70   0x000000bc   Code   RO         1213    .text               uCGUI_Lib.lib(guival.o)
    0x08009c2c   0x0000010c   Code   RO         1229    .text               uCGUI_Lib.lib(guivalf.o)
    0x08009d38   0x000000f4   Code   RO         1305    .text               uCGUI_Lib.lib(guidev_banding.o)
    0x08009e2c   0x0000001a   Code   RO         1345    .text               uCGUI_Lib.lib(gui_adddecmin.o)
    0x08009e46   0x00000002   PAD
    0x08009e48   0x000000bc   Code   RO         1357    .text               uCGUI_Lib.lib(gui_adddecshift.o)
    0x08009f04   0x00000200   Code   RO         1376    .text               uCGUI_Lib.lib(gui_fillpolygon.o)
    0x0800a104   0x0000004c   Code   RO         1391    .text               uCGUI_Lib.lib(gui_goto.o)
    0x0800a150   0x0000001c   Code   RO         1406    .text               uCGUI_Lib.lib(gui_settextalign.o)
    0x0800a16c   0x000000d4   Code   RO         1418    .text               uCGUI_Lib.lib(gui_uc.o)
    0x0800a240   0x00000030   Code   RO         1430    .text               uCGUI_Lib.lib(gui_uc_encodenone.o)
    0x0800a270   0x000000c0   Code   RO         1449    .text               uCGUI_Lib.lib(guichar.o)
    0x0800a330   0x000000d8   Code   RO         1462    .text               uCGUI_Lib.lib(guicharline.o)
    0x0800a408   0x00000158   Code   RO         1474    .text               uCGUI_Lib.lib(guicharm.o)
    0x0800a560   0x000002f2   Code   RO         1486    .text               uCGUI_Lib.lib(guicirc.o)
    0x0800a852   0x00000002   PAD
    0x0800a854   0x000000e8   Code   RO         1498    .text               uCGUI_Lib.lib(guitask.o)
    0x0800a93c   0x0000036c   Code   RO         1513    .text               uCGUI_Lib.lib(lcd.o)
    0x0800aca8   0x0000003c   Code   RO         1544    .text               uCGUI_Lib.lib(lcd_drawvline.o)
    0x0800ace4   0x00000020   Code   RO         1556    .text               uCGUI_Lib.lib(lcd_l0_generic.o)
    0x0800ad04   0x00000030   Code   RO         1568    .text               uCGUI_Lib.lib(lcdinfo0.o)
    0x0800ad34   0x0000037c   Code   RO         1580    .text               uCGUI_Lib.lib(guidev.o)
    0x0800b0b0   0x00000038   Code   RO         1592    .text               uCGUI_Lib.lib(guidev_clear.o)
    0x0800b0e8   0x0000002c   Code   RO         1604    .text               uCGUI_Lib.lib(guidev_getysize.o)
    0x0800b114   0x00000034   Code   RO         1616    .text               uCGUI_Lib.lib(guidev_reduceysize.o)
    0x0800b148   0x00000058   Code   RO         1628    .text               uCGUI_Lib.lib(guidev_setorg.o)
    0x0800b1a0   0x0000001c   Code   RO         1640    .text               uCGUI_Lib.lib(lcdpm565.o)
    0x0800b1bc   0x00000026   Code   RO         1652    .text               uCGUI_Lib.lib(gui_alloc_alloczero.o)
    0x0800b1e2   0x00000038   Code   RO         1664    .text               uCGUI_Lib.lib(gui_rectsintersect.o)
    0x0800b21a   0x00000016   Code   RO         1676    .text               uCGUI_Lib.lib(gui_selectlcd.o)
    0x0800b230   0x00000324   Code   RO         1688    .text               uCGUI_Lib.lib(guialloc.o)
    0x0800b554   0x00000040   Code   RO         1705    .text               uCGUI_Lib.lib(lcdcolor.o)
    0x0800b594   0x00000034   Code   RO         1724    .text               uCGUI_Lib.lib(lcdpm565_index2color.o)
    0x0800b5c8   0x00000744   Code   RO         1736    .text               uCGUI_Lib.lib(guidev_16.o)
    0x0800bd0c   0x0000006c   Code   RO         1778    .text               uCGUI_Lib.lib(guidev_usage.o)
    0x0800bd78   0x000001b8   Code   RO         1790    .text               uCGUI_Lib.lib(guidev_usagebm.o)
    0x0800bf30   0x0000004a   Code   RO         1804    .text               uCGUI_Lib.lib(gui__memset.o)
    0x0800bf7a   0x0000003a   Code   RO         1816    .text               uCGUI_Lib.lib(gui__memset16.o)
    0x0800bfb4   0x0000001c   Code   RO         1840    .text               uCGUI_Lib.lib(lcd_selectlcd.o)
    0x0800bfd0   0x00000020   Code   RO         1852    .text               uCGUI_Lib.lib(lcd_updatecolorindices.o)
    0x0800bff0   0x00000040   Code   RO         1881    .text               mc_w.l(memmovea.o)
    0x0800c030   0x00000024   Code   RO         1883    .text               mc_w.l(memseta.o)
    0x0800c054   0x0000001a   Code   RO         2150    .text               mc_w.l(atoi.o)
    0x0800c06e   0x000000b0   Code   RO         2152    .text               mf_w.l(fadd.o)
    0x0800c11e   0x00000064   Code   RO         2154    .text               mf_w.l(fmul.o)
    0x0800c182   0x0000007c   Code   RO         2156    .text               mf_w.l(fdiv.o)
    0x0800c1fe   0x00000018   Code   RO         2158    .text               mf_w.l(fscalb.o)
    0x0800c216   0x0000014e   Code   RO         2160    .text               mf_w.l(dadd.o)
    0x0800c364   0x000000e4   Code   RO         2162    .text               mf_w.l(dmul.o)
    0x0800c448   0x000000de   Code   RO         2164    .text               mf_w.l(ddiv.o)
    0x0800c526   0x0000002e   Code   RO         2166    .text               mf_w.l(dscalb.o)
    0x0800c554   0x0000000a   Code   RO         2168    .text               mf_w.l(ffltui.o)
    0x0800c55e   0x00000022   Code   RO         2170    .text               mf_w.l(dflti.o)
    0x0800c580   0x0000001a   Code   RO         2172    .text               mf_w.l(dfltui.o)
    0x0800c59a   0x00000032   Code   RO         2174    .text               mf_w.l(ffixi.o)
    0x0800c5cc   0x00000028   Code   RO         2176    .text               mf_w.l(ffixui.o)
    0x0800c5f4   0x00000032   Code   RO         2178    .text               mf_w.l(dfixui.o)
    0x0800c626   0x00000026   Code   RO         2180    .text               mf_w.l(f2d.o)
    0x0800c64c   0x00000038   Code   RO         2182    .text               mf_w.l(d2f.o)
    0x0800c684   0x00000014   Code   RO         2184    .text               mf_w.l(cfcmple.o)
    0x0800c698   0x00000014   Code   RO         2186    .text               mf_w.l(cfrcmple.o)
    0x0800c6ac   0x0000002c   Code   RO         2217    .text               mc_w.l(uidiv.o)
    0x0800c6d8   0x00000062   Code   RO         2219    .text               mc_w.l(uldiv.o)
    0x0800c73a   0x0000001e   Code   RO         2221    .text               mc_w.l(llshl.o)
    0x0800c758   0x00000020   Code   RO         2223    .text               mc_w.l(llushr.o)
    0x0800c778   0x00000024   Code   RO         2225    .text               mc_w.l(llsshr.o)
    0x0800c79c   0x00000070   Code   RO         2234    .text               mc_w.l(strtol.o)
    0x0800c80c   0x00000000   Code   RO         2236    .text               mc_w.l(iusefp.o)
    0x0800c80c   0x0000006e   Code   RO         2237    .text               mf_w.l(fepilogue.o)
    0x0800c87a   0x000000b6   Code   RO         2239    .text               mf_w.l(depilogue.o)
    0x0800c930   0x00000030   Code   RO         2241    .text               mf_w.l(dfixul.o)
    0x0800c960   0x00000028   Code   RO         2243    .text               mf_w.l(cdrcmple.o)
    0x0800c988   0x00000024   Code   RO         2251    .text               mc_w.l(init.o)
    0x0800c9ac   0x00000008   Code   RO         2253    .text               mc_w.l(ctype_o.o)
    0x0800c9b4   0x0000009e   Code   RO         2281    .text               mc_w.l(_strtoul.o)
    0x0800ca52   0x0000003e   Code   RO         2283    .text               mf_w.l(dfixi.o)
    0x0800ca90   0x0000001c   Code   RO         2285    .text               mc_w.l(_chval.o)
    0x0800caac   0x00000020   Code   RO         2122    i.__0printf         mc_w.l(printfa.o)
    0x0800cacc   0x00000028   Code   RO         2124    i.__0sprintf        mc_w.l(printfa.o)
    0x0800caf4   0x00000028   Code   RO         2247    i.__ARM_fpclassify  m_ws.l(fpclassify.o)
    0x0800cb1c   0x00000008   Code   RO         2227    i.__aeabi_errno_addr  mc_w.l(errno.o)
    0x0800cb24   0x00000388   Code   RO         2191    i.__ieee754_rem_pio2  m_ws.l(rred.o)
    0x0800ceac   0x000000fc   Code   RO         2188    i.__kernel_cos      m_ws.l(cos_i.o)
    0x0800cfa8   0x000000aa   Code   RO         2249    i.__kernel_poly     m_ws.l(poly.o)
    0x0800d052   0x00000002   PAD
    0x0800d054   0x000000ec   Code   RO         2196    i.__kernel_sin      m_ws.l(sin_i.o)
    0x0800d140   0x00000010   Code   RO         2245    i.__mathlib_dbl_underflow  m_ws.l(dunder.o)
    0x0800d150   0x0000000e   Code   RO         2289    i.__scatterload_copy  mc_w.l(handlers.o)
    0x0800d15e   0x00000002   Code   RO         2290    i.__scatterload_null  mc_w.l(handlers.o)
    0x0800d160   0x0000000e   Code   RO         2291    i.__scatterload_zeroinit  mc_w.l(handlers.o)
    0x0800d16e   0x00000002   PAD
    0x0800d170   0x0000000c   Code   RO         2229    i.__set_errno       mc_w.l(errno.o)
    0x0800d17c   0x00000164   Code   RO         2129    i._fp_digits        mc_w.l(printfa.o)
    0x0800d2e0   0x000006dc   Code   RO         2130    i._printf_core      mc_w.l(printfa.o)
    0x0800d9bc   0x00000024   Code   RO         2131    i._printf_post_padding  mc_w.l(printfa.o)
    0x0800d9e0   0x0000002e   Code   RO         2132    i._printf_pre_padding  mc_w.l(printfa.o)
    0x0800da0e   0x0000000a   Code   RO         2134    i._sputc            mc_w.l(printfa.o)
    0x0800da18   0x000000dc   Code   RO         1865    i.floor             m_ws.l(floor.o)
    0x0800daf4   0x000000b0   Code   RO         1869    i.sin               m_ws.l(sin.o)
    0x0800dba4   0x00000040   Data   RO          282    .constdata          dac v2.0.o
    0x0800dbe4   0x00000040   Data   RO          283    .constdata          dac v2.0.o
    0x0800dc24   0x00000040   Data   RO          284    .constdata          dac v2.0.o
    0x0800dc64   0x00000600   Data   RO          377    .constdata          tft_api.o
    0x0800e264   0x00000008   Data   RO          720    .constdata          task_gui.o
    0x0800e26c   0x00000018   Data   RO          765    .constdata          task_rtc.o
    0x0800e284   0x00000100   Data   RO          802    .constdata          os_core.o
    0x0800e384   0x00000044   Data   RO         1010    .constdata          uCGUI_Lib.lib(gui2dlib.o)
    0x0800e3c8   0x00000518   Data   RO         1245    .constdata          uCGUI_Lib.lib(f6x8.o)
    0x0800e8e0   0x000001c0   Data   RO         1246    .constdata          uCGUI_Lib.lib(f6x8.o)
    0x0800eaa0   0x00000008   Data   RO         1247    .constdata          uCGUI_Lib.lib(f6x8.o)
    0x0800eaa8   0x00000014   Data   RO         1248    .constdata          uCGUI_Lib.lib(f6x8.o)
    0x0800eabc   0x00000020   Data   RO         1249    .constdata          uCGUI_Lib.lib(f6x8.o)
    0x0800eadc   0x00000a30   Data   RO         1281    .constdata          uCGUI_Lib.lib(f8x16.o)
    0x0800f50c   0x000001c0   Data   RO         1282    .constdata          uCGUI_Lib.lib(f8x16.o)
    0x0800f6cc   0x00000008   Data   RO         1283    .constdata          uCGUI_Lib.lib(f8x16.o)
    0x0800f6d4   0x00000014   Data   RO         1284    .constdata          uCGUI_Lib.lib(f8x16.o)
    0x0800f6e8   0x00000020   Data   RO         1285    .constdata          uCGUI_Lib.lib(f8x16.o)
    0x0800f708   0x00000028   Data   RO         1358    .constdata          uCGUI_Lib.lib(gui_adddecshift.o)
    0x0800f730   0x00000010   Data   RO         1431    .constdata          uCGUI_Lib.lib(gui_uc_encodenone.o)
    0x0800f740   0x00000040   Data   RO         1530    .constdata          uCGUI_Lib.lib(lcd_api.o)
    0x0800f780   0x00000020   Data   RO         1737    .constdata          uCGUI_Lib.lib(guidev_16.o)
    0x0800f7a0   0x00000040   Data   RO         1738    .constdata          uCGUI_Lib.lib(guidev_16.o)
    0x0800f7e0   0x00000018   Data   RO         1791    .constdata          uCGUI_Lib.lib(guidev_usagebm.o)
    0x0800f7f8   0x00000100   Data   RO         1828    .constdata          uCGUI_Lib.lib(lcd_mirror.o)
    0x0800f8f8   0x00000030   Data   RO         2189    .constdata          m_ws.l(cos_i.o)
    0x0800f928   0x000000c8   Data   RO         2193    .constdata          m_ws.l(rred.o)
    0x0800f9f0   0x00000028   Data   RO         2197    .constdata          m_ws.l(sin_i.o)
    0x0800fa18   0x00000081   Data   RO         2254    .constdata          mc_w.l(ctype_o.o)
    0x0800fa99   0x00000003   PAD
    0x0800fa9c   0x00000004   Data   RO         2255    .constdata          mc_w.l(ctype_o.o)
    0x0800faa0   0x00000020   Data   RO         2287    Region$$Table       anon$$obj.o


    Execution Region RW_IRAM1 (Base: 0x20000000, Size: 0x000074f8, Max: 0x00010000, ABSOLUTE)

    Base Addr    Size         Type   Attr      Idx    E Section Name        Object

    0x20000000   0x0000000c   Data   RW           12    .data               main.o
    0x2000000c   0x00000008   Data   RW          238    .data               delay v2.0.o
    0x20000014   0x0000000c   Data   RW          299    .data               exti.o
    0x20000020   0x00000004   Data   RW          343    .data               oscilloscope.o
    0x20000024   0x00000024   Data   RW          399    .data               tft_drive.o
    0x20000048   0x00000014   Data   RW          441    .data               stm32f10x_rcc.o
    0x2000005c   0x00000014   Data   RW          624    .data               system_stm32f10x.o
    0x20000070   0x0000000c   Data   RW          721    .data               task_gui.o
    0x2000007c   0x00000002   Data   RW          722    .data               task_gui.o
    0x2000007e   0x00000002   Data   RW          723    .data               task_gui.o
    0x20000080   0x00000002   Data   RW          766    .data               task_rtc.o
    0x20000082   0x00000002   PAD
    0x20000084   0x0000003c   Data   RW          803    .data               os_core.o
    0x200000c0   0x00000014   Data   RW          956    .data               gui_x_ucos.o
    0x200000d4   0x00000001   Data   RW         1177    .data               uCGUI_Lib.lib(guicore.o)
    0x200000d5   0x00000003   PAD
    0x200000d8   0x00000004   Data   RW         1180    .data               uCGUI_Lib.lib(guicore.o)
    0x200000dc   0x00000004   Data   RW         1181    .data               uCGUI_Lib.lib(guicore.o)
    0x200000e0   0x00000004   Data   RW         1378    .data               uCGUI_Lib.lib(gui_fillpolygon.o)
    0x200000e4   0x0000000c   Data   RW         1500    .data               uCGUI_Lib.lib(guitask.o)
    0x200000f0   0x00000004   Data   RW         1531    .data               uCGUI_Lib.lib(lcd_api.o)
    0x200000f4   0x00000001   Data   RW         1690    .data               uCGUI_Lib.lib(guialloc.o)
    0x200000f5   0x00000003   PAD
    0x200000f8   0x00000004   Data   RW         2216    .data               mc_w.l(stdout.o)
    0x200000fc   0x00000004   Data   RW         2230    .data               mc_w.l(errno.o)
    0x20000100   0x00000100   Zero   RW           11    .bss                main.o
    0x20000200   0x00000010   Zero   RW          200    .bss                usart1.o
    0x20000210   0x00000320   Zero   RW          265    .bss                adc.o
    0x20000530   0x00000040   Zero   RW          281    .bss                dac v2.0.o
    0x20000570   0x00000040   Zero   RW          376    .bss                tft_api.o
    0x200005b0   0x00004400   Zero   RW          658    .bss                app.o
    0x200049b0   0x00000320   Zero   RW          719    .bss                task_gui.o
    0x20004cd0   0x00000044   Zero   RW          748    .bss                task_main.o
    0x20004d14   0x0000000a   Zero   RW          764    .bss                task_rtc.o
    0x20004d1e   0x00000002   PAD
    0x20004d20   0x000008f4   Zero   RW          801    .bss                os_core.o
    0x20005614   0x00000048   Zero   RW         1176    .bss                uCGUI_Lib.lib(guicore.o)
    0x2000565c   0x00000018   Zero   RW         1377    .bss                uCGUI_Lib.lib(gui_fillpolygon.o)
    0x20005674   0x00000130   Zero   RW         1499    .bss                uCGUI_Lib.lib(guitask.o)
    0x200057a4   0x00001750   Zero   RW         1689    .bss                uCGUI_Lib.lib(guialloc.o)
    0x20006ef4   0x00000200   Zero   RW         1706    .bss                uCGUI_Lib.lib(lcdcolor.o)
    0x200070f4   0x00000004   PAD
    0x200070f8   0x00000400   Zero   RW            1    STACK               startup_stm32f10x_hd.o

